ARM GAS  C:\Users\BETTEF~1\AppData\Local\Temp\cceXEmh4.s 			page 1


   1              		.syntax unified
   2              		.cpu cortex-m3
   3              		.fpu softvfp
   4              		.eabi_attribute 20, 1
   5              		.eabi_attribute 21, 1
   6              		.eabi_attribute 23, 3
   7              		.eabi_attribute 24, 1
   8              		.eabi_attribute 25, 1
   9              		.eabi_attribute 26, 1
  10              		.eabi_attribute 30, 1
  11              		.eabi_attribute 34, 1
  12              		.eabi_attribute 18, 4
  13              		.thumb
  14              		.file	"Pin_int_y_end.c"
  15              		.text
  16              	.Ltext0:
  17              		.cfi_sections	.debug_frame
  18              		.section	.text.Pin_int_y_end_Write,"ax",%progbits
  19              		.align	2
  20              		.global	Pin_int_y_end_Write
  21              		.thumb
  22              		.thumb_func
  23              		.type	Pin_int_y_end_Write, %function
  24              	Pin_int_y_end_Write:
  25              	.LFB0:
  26              		.file 1 "Generated_Source\\PSoC5\\Pin_int_y_end.c"
   1:Generated_Source\PSoC5/Pin_int_y_end.c **** /*******************************************************************************
   2:Generated_Source\PSoC5/Pin_int_y_end.c **** * File Name: Pin_int_y_end.c  
   3:Generated_Source\PSoC5/Pin_int_y_end.c **** * Version 2.20
   4:Generated_Source\PSoC5/Pin_int_y_end.c **** *
   5:Generated_Source\PSoC5/Pin_int_y_end.c **** * Description:
   6:Generated_Source\PSoC5/Pin_int_y_end.c **** *  This file contains API to enable firmware control of a Pins component.
   7:Generated_Source\PSoC5/Pin_int_y_end.c **** *
   8:Generated_Source\PSoC5/Pin_int_y_end.c **** * Note:
   9:Generated_Source\PSoC5/Pin_int_y_end.c **** *
  10:Generated_Source\PSoC5/Pin_int_y_end.c **** ********************************************************************************
  11:Generated_Source\PSoC5/Pin_int_y_end.c **** * Copyright 2008-2015, Cypress Semiconductor Corporation.  All rights reserved.
  12:Generated_Source\PSoC5/Pin_int_y_end.c **** * You may use this file only in accordance with the license, terms, conditions, 
  13:Generated_Source\PSoC5/Pin_int_y_end.c **** * disclaimers, and limitations in the end user license agreement accompanying 
  14:Generated_Source\PSoC5/Pin_int_y_end.c **** * the software package with which this file was provided.
  15:Generated_Source\PSoC5/Pin_int_y_end.c **** *******************************************************************************/
  16:Generated_Source\PSoC5/Pin_int_y_end.c **** 
  17:Generated_Source\PSoC5/Pin_int_y_end.c **** #include "cytypes.h"
  18:Generated_Source\PSoC5/Pin_int_y_end.c **** #include "Pin_int_y_end.h"
  19:Generated_Source\PSoC5/Pin_int_y_end.c **** 
  20:Generated_Source\PSoC5/Pin_int_y_end.c **** /* APIs are not generated for P15[7:6] on PSoC 5 */
  21:Generated_Source\PSoC5/Pin_int_y_end.c **** #if !(CY_PSOC5A &&\
  22:Generated_Source\PSoC5/Pin_int_y_end.c **** 	 Pin_int_y_end__PORT == 15 && ((Pin_int_y_end__MASK & 0xC0) != 0))
  23:Generated_Source\PSoC5/Pin_int_y_end.c **** 
  24:Generated_Source\PSoC5/Pin_int_y_end.c **** 
  25:Generated_Source\PSoC5/Pin_int_y_end.c **** /*******************************************************************************
  26:Generated_Source\PSoC5/Pin_int_y_end.c **** * Function Name: Pin_int_y_end_Write
  27:Generated_Source\PSoC5/Pin_int_y_end.c **** ****************************************************************************//**
  28:Generated_Source\PSoC5/Pin_int_y_end.c **** *
  29:Generated_Source\PSoC5/Pin_int_y_end.c **** * \brief Writes the value to the physical port (data output register), masking
  30:Generated_Source\PSoC5/Pin_int_y_end.c **** *  and shifting the bits appropriately. 
  31:Generated_Source\PSoC5/Pin_int_y_end.c **** *
ARM GAS  C:\Users\BETTEF~1\AppData\Local\Temp\cceXEmh4.s 			page 2


  32:Generated_Source\PSoC5/Pin_int_y_end.c **** * The data output register controls the signal applied to the physical pin in 
  33:Generated_Source\PSoC5/Pin_int_y_end.c **** * conjunction with the drive mode parameter. This function avoids changing 
  34:Generated_Source\PSoC5/Pin_int_y_end.c **** * other bits in the port by using the appropriate method (read-modify-write or
  35:Generated_Source\PSoC5/Pin_int_y_end.c **** * bit banding).
  36:Generated_Source\PSoC5/Pin_int_y_end.c **** *
  37:Generated_Source\PSoC5/Pin_int_y_end.c **** * <b>Note</b> This function should not be used on a hardware digital output pin 
  38:Generated_Source\PSoC5/Pin_int_y_end.c **** * as it is driven by the hardware signal attached to it.
  39:Generated_Source\PSoC5/Pin_int_y_end.c **** *
  40:Generated_Source\PSoC5/Pin_int_y_end.c **** * \param value
  41:Generated_Source\PSoC5/Pin_int_y_end.c **** *  Value to write to the component instance.
  42:Generated_Source\PSoC5/Pin_int_y_end.c **** *
  43:Generated_Source\PSoC5/Pin_int_y_end.c **** * \return 
  44:Generated_Source\PSoC5/Pin_int_y_end.c **** *  None 
  45:Generated_Source\PSoC5/Pin_int_y_end.c **** *
  46:Generated_Source\PSoC5/Pin_int_y_end.c **** * \sideeffect
  47:Generated_Source\PSoC5/Pin_int_y_end.c **** *  If you use read-modify-write operations that are not atomic; the Interrupt 
  48:Generated_Source\PSoC5/Pin_int_y_end.c **** *  Service Routines (ISR) can cause corruption of this function. An ISR that 
  49:Generated_Source\PSoC5/Pin_int_y_end.c **** *  interrupts this function and performs writes to the Pins component data 
  50:Generated_Source\PSoC5/Pin_int_y_end.c **** *  register can cause corrupted port data. To avoid this issue, you should 
  51:Generated_Source\PSoC5/Pin_int_y_end.c **** *  either use the Per-Pin APIs (primary method) or disable interrupts around 
  52:Generated_Source\PSoC5/Pin_int_y_end.c **** *  this function.
  53:Generated_Source\PSoC5/Pin_int_y_end.c **** *
  54:Generated_Source\PSoC5/Pin_int_y_end.c **** * \funcusage
  55:Generated_Source\PSoC5/Pin_int_y_end.c **** *  \snippet Pin_int_y_end_SUT.c usage_Pin_int_y_end_Write
  56:Generated_Source\PSoC5/Pin_int_y_end.c **** *******************************************************************************/
  57:Generated_Source\PSoC5/Pin_int_y_end.c **** void Pin_int_y_end_Write(uint8 value)
  58:Generated_Source\PSoC5/Pin_int_y_end.c **** {
  27              		.loc 1 58 0
  28              		.cfi_startproc
  29              		@ args = 0, pretend = 0, frame = 0
  30              		@ frame_needed = 0, uses_anonymous_args = 0
  31              		@ link register save eliminated.
  32              	.LVL0:
  59:Generated_Source\PSoC5/Pin_int_y_end.c ****     uint8 staticBits = (Pin_int_y_end_DR & (uint8)(~Pin_int_y_end_MASK));
  33              		.loc 1 59 0
  34 0000 044A     		ldr	r2, .L2
  35 0002 1378     		ldrb	r3, [r2]	@ zero_extendqisi2
  36 0004 03F0FE03 		and	r3, r3, #254
  37              	.LVL1:
  60:Generated_Source\PSoC5/Pin_int_y_end.c ****     Pin_int_y_end_DR = staticBits | ((uint8)(value << Pin_int_y_end_SHIFT) & Pin_int_y_end_MASK);
  38              		.loc 1 60 0
  39 0008 00F00100 		and	r0, r0, #1
  40              	.LVL2:
  41 000c 1843     		orrs	r0, r0, r3
  42 000e 1070     		strb	r0, [r2]
  43 0010 7047     		bx	lr
  44              	.L3:
  45 0012 00BF     		.align	2
  46              	.L2:
  47 0014 20510040 		.word	1073762592
  48              		.cfi_endproc
  49              	.LFE0:
  50              		.size	Pin_int_y_end_Write, .-Pin_int_y_end_Write
  51              		.section	.text.Pin_int_y_end_SetDriveMode,"ax",%progbits
  52              		.align	2
  53              		.global	Pin_int_y_end_SetDriveMode
  54              		.thumb
ARM GAS  C:\Users\BETTEF~1\AppData\Local\Temp\cceXEmh4.s 			page 3


  55              		.thumb_func
  56              		.type	Pin_int_y_end_SetDriveMode, %function
  57              	Pin_int_y_end_SetDriveMode:
  58              	.LFB1:
  61:Generated_Source\PSoC5/Pin_int_y_end.c **** }
  62:Generated_Source\PSoC5/Pin_int_y_end.c **** 
  63:Generated_Source\PSoC5/Pin_int_y_end.c **** 
  64:Generated_Source\PSoC5/Pin_int_y_end.c **** /*******************************************************************************
  65:Generated_Source\PSoC5/Pin_int_y_end.c **** * Function Name: Pin_int_y_end_SetDriveMode
  66:Generated_Source\PSoC5/Pin_int_y_end.c **** ****************************************************************************//**
  67:Generated_Source\PSoC5/Pin_int_y_end.c **** *
  68:Generated_Source\PSoC5/Pin_int_y_end.c **** * \brief Sets the drive mode for each of the Pins component's pins.
  69:Generated_Source\PSoC5/Pin_int_y_end.c **** * 
  70:Generated_Source\PSoC5/Pin_int_y_end.c **** * <b>Note</b> This affects all pins in the Pins component instance. Use the
  71:Generated_Source\PSoC5/Pin_int_y_end.c **** * Per-Pin APIs if you wish to control individual pin's drive modes.
  72:Generated_Source\PSoC5/Pin_int_y_end.c **** *
  73:Generated_Source\PSoC5/Pin_int_y_end.c **** * \param mode
  74:Generated_Source\PSoC5/Pin_int_y_end.c **** *  Mode for the selected signals. Valid options are documented in 
  75:Generated_Source\PSoC5/Pin_int_y_end.c **** *  \ref driveMode.
  76:Generated_Source\PSoC5/Pin_int_y_end.c **** *
  77:Generated_Source\PSoC5/Pin_int_y_end.c **** * \return
  78:Generated_Source\PSoC5/Pin_int_y_end.c **** *  None
  79:Generated_Source\PSoC5/Pin_int_y_end.c **** *
  80:Generated_Source\PSoC5/Pin_int_y_end.c **** * \sideeffect
  81:Generated_Source\PSoC5/Pin_int_y_end.c **** *  If you use read-modify-write operations that are not atomic, the ISR can
  82:Generated_Source\PSoC5/Pin_int_y_end.c **** *  cause corruption of this function. An ISR that interrupts this function 
  83:Generated_Source\PSoC5/Pin_int_y_end.c **** *  and performs writes to the Pins component Drive Mode registers can cause 
  84:Generated_Source\PSoC5/Pin_int_y_end.c **** *  corrupted port data. To avoid this issue, you should either use the Per-Pin
  85:Generated_Source\PSoC5/Pin_int_y_end.c **** *  APIs (primary method) or disable interrupts around this function.
  86:Generated_Source\PSoC5/Pin_int_y_end.c **** *
  87:Generated_Source\PSoC5/Pin_int_y_end.c **** * \funcusage
  88:Generated_Source\PSoC5/Pin_int_y_end.c **** *  \snippet Pin_int_y_end_SUT.c usage_Pin_int_y_end_SetDriveMode
  89:Generated_Source\PSoC5/Pin_int_y_end.c **** *******************************************************************************/
  90:Generated_Source\PSoC5/Pin_int_y_end.c **** void Pin_int_y_end_SetDriveMode(uint8 mode)
  91:Generated_Source\PSoC5/Pin_int_y_end.c **** {
  59              		.loc 1 91 0
  60              		.cfi_startproc
  61              		@ args = 0, pretend = 0, frame = 0
  62              		@ frame_needed = 0, uses_anonymous_args = 0
  63              		@ link register save eliminated.
  64              	.LVL3:
  92:Generated_Source\PSoC5/Pin_int_y_end.c **** 	CyPins_SetPinDriveMode(Pin_int_y_end_0, mode);
  65              		.loc 1 92 0
  66 0000 044A     		ldr	r2, .L5
  67 0002 1378     		ldrb	r3, [r2]	@ zero_extendqisi2
  68 0004 03F0F103 		and	r3, r3, #241
  69 0008 00F00E00 		and	r0, r0, #14
  70              	.LVL4:
  71 000c 1843     		orrs	r0, r0, r3
  72 000e 1070     		strb	r0, [r2]
  73 0010 7047     		bx	lr
  74              	.L6:
  75 0012 00BF     		.align	2
  76              	.L5:
  77 0014 10500040 		.word	1073762320
  78              		.cfi_endproc
  79              	.LFE1:
ARM GAS  C:\Users\BETTEF~1\AppData\Local\Temp\cceXEmh4.s 			page 4


  80              		.size	Pin_int_y_end_SetDriveMode, .-Pin_int_y_end_SetDriveMode
  81              		.section	.text.Pin_int_y_end_Read,"ax",%progbits
  82              		.align	2
  83              		.global	Pin_int_y_end_Read
  84              		.thumb
  85              		.thumb_func
  86              		.type	Pin_int_y_end_Read, %function
  87              	Pin_int_y_end_Read:
  88              	.LFB2:
  93:Generated_Source\PSoC5/Pin_int_y_end.c **** }
  94:Generated_Source\PSoC5/Pin_int_y_end.c **** 
  95:Generated_Source\PSoC5/Pin_int_y_end.c **** 
  96:Generated_Source\PSoC5/Pin_int_y_end.c **** /*******************************************************************************
  97:Generated_Source\PSoC5/Pin_int_y_end.c **** * Function Name: Pin_int_y_end_Read
  98:Generated_Source\PSoC5/Pin_int_y_end.c **** ****************************************************************************//**
  99:Generated_Source\PSoC5/Pin_int_y_end.c **** *
 100:Generated_Source\PSoC5/Pin_int_y_end.c **** * \brief Reads the associated physical port (pin status register) and masks 
 101:Generated_Source\PSoC5/Pin_int_y_end.c **** *  the required bits according to the width and bit position of the component
 102:Generated_Source\PSoC5/Pin_int_y_end.c **** *  instance. 
 103:Generated_Source\PSoC5/Pin_int_y_end.c **** *
 104:Generated_Source\PSoC5/Pin_int_y_end.c **** * The pin's status register returns the current logic level present on the 
 105:Generated_Source\PSoC5/Pin_int_y_end.c **** * physical pin.
 106:Generated_Source\PSoC5/Pin_int_y_end.c **** *
 107:Generated_Source\PSoC5/Pin_int_y_end.c **** * \return 
 108:Generated_Source\PSoC5/Pin_int_y_end.c **** *  The current value for the pins in the component as a right justified number.
 109:Generated_Source\PSoC5/Pin_int_y_end.c **** *
 110:Generated_Source\PSoC5/Pin_int_y_end.c **** * \funcusage
 111:Generated_Source\PSoC5/Pin_int_y_end.c **** *  \snippet Pin_int_y_end_SUT.c usage_Pin_int_y_end_Read  
 112:Generated_Source\PSoC5/Pin_int_y_end.c **** *******************************************************************************/
 113:Generated_Source\PSoC5/Pin_int_y_end.c **** uint8 Pin_int_y_end_Read(void)
 114:Generated_Source\PSoC5/Pin_int_y_end.c **** {
  89              		.loc 1 114 0
  90              		.cfi_startproc
  91              		@ args = 0, pretend = 0, frame = 0
  92              		@ frame_needed = 0, uses_anonymous_args = 0
  93              		@ link register save eliminated.
 115:Generated_Source\PSoC5/Pin_int_y_end.c ****     return (Pin_int_y_end_PS & Pin_int_y_end_MASK) >> Pin_int_y_end_SHIFT;
  94              		.loc 1 115 0
  95 0000 024B     		ldr	r3, .L8
  96 0002 1878     		ldrb	r0, [r3]	@ zero_extendqisi2
 116:Generated_Source\PSoC5/Pin_int_y_end.c **** }
  97              		.loc 1 116 0
  98 0004 00F00100 		and	r0, r0, #1
  99 0008 7047     		bx	lr
 100              	.L9:
 101 000a 00BF     		.align	2
 102              	.L8:
 103 000c 21510040 		.word	1073762593
 104              		.cfi_endproc
 105              	.LFE2:
 106              		.size	Pin_int_y_end_Read, .-Pin_int_y_end_Read
 107              		.section	.text.Pin_int_y_end_ReadDataReg,"ax",%progbits
 108              		.align	2
 109              		.global	Pin_int_y_end_ReadDataReg
 110              		.thumb
 111              		.thumb_func
 112              		.type	Pin_int_y_end_ReadDataReg, %function
ARM GAS  C:\Users\BETTEF~1\AppData\Local\Temp\cceXEmh4.s 			page 5


 113              	Pin_int_y_end_ReadDataReg:
 114              	.LFB3:
 117:Generated_Source\PSoC5/Pin_int_y_end.c **** 
 118:Generated_Source\PSoC5/Pin_int_y_end.c **** 
 119:Generated_Source\PSoC5/Pin_int_y_end.c **** /*******************************************************************************
 120:Generated_Source\PSoC5/Pin_int_y_end.c **** * Function Name: Pin_int_y_end_ReadDataReg
 121:Generated_Source\PSoC5/Pin_int_y_end.c **** ****************************************************************************//**
 122:Generated_Source\PSoC5/Pin_int_y_end.c **** *
 123:Generated_Source\PSoC5/Pin_int_y_end.c **** * \brief Reads the associated physical port's data output register and masks 
 124:Generated_Source\PSoC5/Pin_int_y_end.c **** *  the correct bits according to the width and bit position of the component 
 125:Generated_Source\PSoC5/Pin_int_y_end.c **** *  instance. 
 126:Generated_Source\PSoC5/Pin_int_y_end.c **** *
 127:Generated_Source\PSoC5/Pin_int_y_end.c **** * The data output register controls the signal applied to the physical pin in 
 128:Generated_Source\PSoC5/Pin_int_y_end.c **** * conjunction with the drive mode parameter. This is not the same as the 
 129:Generated_Source\PSoC5/Pin_int_y_end.c **** * preferred Pin_int_y_end_Read() API because the 
 130:Generated_Source\PSoC5/Pin_int_y_end.c **** * Pin_int_y_end_ReadDataReg() reads the data register instead of the status 
 131:Generated_Source\PSoC5/Pin_int_y_end.c **** * register. For output pins this is a useful function to determine the value 
 132:Generated_Source\PSoC5/Pin_int_y_end.c **** * just written to the pin.
 133:Generated_Source\PSoC5/Pin_int_y_end.c **** *
 134:Generated_Source\PSoC5/Pin_int_y_end.c **** * \return 
 135:Generated_Source\PSoC5/Pin_int_y_end.c **** *  The current value of the data register masked and shifted into a right 
 136:Generated_Source\PSoC5/Pin_int_y_end.c **** *  justified number for the component instance.
 137:Generated_Source\PSoC5/Pin_int_y_end.c **** *
 138:Generated_Source\PSoC5/Pin_int_y_end.c **** * \funcusage
 139:Generated_Source\PSoC5/Pin_int_y_end.c **** *  \snippet Pin_int_y_end_SUT.c usage_Pin_int_y_end_ReadDataReg 
 140:Generated_Source\PSoC5/Pin_int_y_end.c **** *******************************************************************************/
 141:Generated_Source\PSoC5/Pin_int_y_end.c **** uint8 Pin_int_y_end_ReadDataReg(void)
 142:Generated_Source\PSoC5/Pin_int_y_end.c **** {
 115              		.loc 1 142 0
 116              		.cfi_startproc
 117              		@ args = 0, pretend = 0, frame = 0
 118              		@ frame_needed = 0, uses_anonymous_args = 0
 119              		@ link register save eliminated.
 143:Generated_Source\PSoC5/Pin_int_y_end.c ****     return (Pin_int_y_end_DR & Pin_int_y_end_MASK) >> Pin_int_y_end_SHIFT;
 120              		.loc 1 143 0
 121 0000 024B     		ldr	r3, .L11
 122 0002 1878     		ldrb	r0, [r3]	@ zero_extendqisi2
 144:Generated_Source\PSoC5/Pin_int_y_end.c **** }
 123              		.loc 1 144 0
 124 0004 00F00100 		and	r0, r0, #1
 125 0008 7047     		bx	lr
 126              	.L12:
 127 000a 00BF     		.align	2
 128              	.L11:
 129 000c 20510040 		.word	1073762592
 130              		.cfi_endproc
 131              	.LFE3:
 132              		.size	Pin_int_y_end_ReadDataReg, .-Pin_int_y_end_ReadDataReg
 133              		.section	.text.Pin_int_y_end_SetInterruptMode,"ax",%progbits
 134              		.align	2
 135              		.global	Pin_int_y_end_SetInterruptMode
 136              		.thumb
 137              		.thumb_func
 138              		.type	Pin_int_y_end_SetInterruptMode, %function
 139              	Pin_int_y_end_SetInterruptMode:
 140              	.LFB4:
 145:Generated_Source\PSoC5/Pin_int_y_end.c **** 
ARM GAS  C:\Users\BETTEF~1\AppData\Local\Temp\cceXEmh4.s 			page 6


 146:Generated_Source\PSoC5/Pin_int_y_end.c **** 
 147:Generated_Source\PSoC5/Pin_int_y_end.c **** /* If interrupt is connected for this Pins component */ 
 148:Generated_Source\PSoC5/Pin_int_y_end.c **** #if defined(Pin_int_y_end_INTSTAT) 
 149:Generated_Source\PSoC5/Pin_int_y_end.c **** 
 150:Generated_Source\PSoC5/Pin_int_y_end.c ****     /*******************************************************************************
 151:Generated_Source\PSoC5/Pin_int_y_end.c ****     * Function Name: Pin_int_y_end_SetInterruptMode
 152:Generated_Source\PSoC5/Pin_int_y_end.c ****     ****************************************************************************//**
 153:Generated_Source\PSoC5/Pin_int_y_end.c ****     *
 154:Generated_Source\PSoC5/Pin_int_y_end.c ****     * \brief Configures the interrupt mode for each of the Pins component's
 155:Generated_Source\PSoC5/Pin_int_y_end.c ****     *  pins. Alternatively you may set the interrupt mode for all the pins
 156:Generated_Source\PSoC5/Pin_int_y_end.c ****     *  specified in the Pins component.
 157:Generated_Source\PSoC5/Pin_int_y_end.c ****     *
 158:Generated_Source\PSoC5/Pin_int_y_end.c ****     *  <b>Note</b> The interrupt is port-wide and therefore any enabled pin
 159:Generated_Source\PSoC5/Pin_int_y_end.c ****     *  interrupt may trigger it.
 160:Generated_Source\PSoC5/Pin_int_y_end.c ****     *
 161:Generated_Source\PSoC5/Pin_int_y_end.c ****     * \param position
 162:Generated_Source\PSoC5/Pin_int_y_end.c ****     *  The pin position as listed in the Pins component. You may OR these to be 
 163:Generated_Source\PSoC5/Pin_int_y_end.c ****     *  able to configure the interrupt mode of multiple pins within a Pins 
 164:Generated_Source\PSoC5/Pin_int_y_end.c ****     *  component. Or you may use Pin_int_y_end_INTR_ALL to configure the
 165:Generated_Source\PSoC5/Pin_int_y_end.c ****     *  interrupt mode of all the pins in the Pins component.       
 166:Generated_Source\PSoC5/Pin_int_y_end.c ****     *  - Pin_int_y_end_0_INTR       (First pin in the list)
 167:Generated_Source\PSoC5/Pin_int_y_end.c ****     *  - Pin_int_y_end_1_INTR       (Second pin in the list)
 168:Generated_Source\PSoC5/Pin_int_y_end.c ****     *  - ...
 169:Generated_Source\PSoC5/Pin_int_y_end.c ****     *  - Pin_int_y_end_INTR_ALL     (All pins in Pins component)
 170:Generated_Source\PSoC5/Pin_int_y_end.c ****     *
 171:Generated_Source\PSoC5/Pin_int_y_end.c ****     * \param mode
 172:Generated_Source\PSoC5/Pin_int_y_end.c ****     *  Interrupt mode for the selected pins. Valid options are documented in
 173:Generated_Source\PSoC5/Pin_int_y_end.c ****     *  \ref intrMode.
 174:Generated_Source\PSoC5/Pin_int_y_end.c ****     *
 175:Generated_Source\PSoC5/Pin_int_y_end.c ****     * \return 
 176:Generated_Source\PSoC5/Pin_int_y_end.c ****     *  None
 177:Generated_Source\PSoC5/Pin_int_y_end.c ****     *  
 178:Generated_Source\PSoC5/Pin_int_y_end.c ****     * \sideeffect
 179:Generated_Source\PSoC5/Pin_int_y_end.c ****     *  It is recommended that the interrupt be disabled before calling this 
 180:Generated_Source\PSoC5/Pin_int_y_end.c ****     *  function to avoid unintended interrupt requests. Note that the interrupt
 181:Generated_Source\PSoC5/Pin_int_y_end.c ****     *  type is port wide, and therefore will trigger for any enabled pin on the 
 182:Generated_Source\PSoC5/Pin_int_y_end.c ****     *  port.
 183:Generated_Source\PSoC5/Pin_int_y_end.c ****     *
 184:Generated_Source\PSoC5/Pin_int_y_end.c ****     * \funcusage
 185:Generated_Source\PSoC5/Pin_int_y_end.c ****     *  \snippet Pin_int_y_end_SUT.c usage_Pin_int_y_end_SetInterruptMode
 186:Generated_Source\PSoC5/Pin_int_y_end.c ****     *******************************************************************************/
 187:Generated_Source\PSoC5/Pin_int_y_end.c ****     void Pin_int_y_end_SetInterruptMode(uint16 position, uint16 mode)
 188:Generated_Source\PSoC5/Pin_int_y_end.c ****     {
 141              		.loc 1 188 0
 142              		.cfi_startproc
 143              		@ args = 0, pretend = 0, frame = 0
 144              		@ frame_needed = 0, uses_anonymous_args = 0
 145              		@ link register save eliminated.
 146              	.LVL5:
 189:Generated_Source\PSoC5/Pin_int_y_end.c **** 		if((position & Pin_int_y_end_0_INTR) != 0u) 
 147              		.loc 1 189 0
 148 0000 10F0010F 		tst	r0, #1
 149 0004 02D0     		beq	.L13
 190:Generated_Source\PSoC5/Pin_int_y_end.c **** 		{ 
 191:Generated_Source\PSoC5/Pin_int_y_end.c **** 			 Pin_int_y_end_0_INTTYPE_REG = (uint8)mode; 
 150              		.loc 1 191 0
 151 0006 C9B2     		uxtb	r1, r1
ARM GAS  C:\Users\BETTEF~1\AppData\Local\Temp\cceXEmh4.s 			page 7


 152              	.LVL6:
 153 0008 014B     		ldr	r3, .L15
 154 000a 1970     		strb	r1, [r3]
 155              	.L13:
 156 000c 7047     		bx	lr
 157              	.L16:
 158 000e 00BF     		.align	2
 159              	.L15:
 160 0010 10450040 		.word	1073759504
 161              		.cfi_endproc
 162              	.LFE4:
 163              		.size	Pin_int_y_end_SetInterruptMode, .-Pin_int_y_end_SetInterruptMode
 164              		.section	.text.Pin_int_y_end_ClearInterrupt,"ax",%progbits
 165              		.align	2
 166              		.global	Pin_int_y_end_ClearInterrupt
 167              		.thumb
 168              		.thumb_func
 169              		.type	Pin_int_y_end_ClearInterrupt, %function
 170              	Pin_int_y_end_ClearInterrupt:
 171              	.LFB5:
 192:Generated_Source\PSoC5/Pin_int_y_end.c **** 		}
 193:Generated_Source\PSoC5/Pin_int_y_end.c ****     }
 194:Generated_Source\PSoC5/Pin_int_y_end.c ****     
 195:Generated_Source\PSoC5/Pin_int_y_end.c ****     
 196:Generated_Source\PSoC5/Pin_int_y_end.c ****     /*******************************************************************************
 197:Generated_Source\PSoC5/Pin_int_y_end.c ****     * Function Name: Pin_int_y_end_ClearInterrupt
 198:Generated_Source\PSoC5/Pin_int_y_end.c ****     ****************************************************************************//**
 199:Generated_Source\PSoC5/Pin_int_y_end.c ****     *
 200:Generated_Source\PSoC5/Pin_int_y_end.c ****     * \brief Clears any active interrupts attached with the component and returns 
 201:Generated_Source\PSoC5/Pin_int_y_end.c ****     *  the value of the interrupt status register allowing determination of which
 202:Generated_Source\PSoC5/Pin_int_y_end.c ****     *  pins generated an interrupt event.
 203:Generated_Source\PSoC5/Pin_int_y_end.c ****     *
 204:Generated_Source\PSoC5/Pin_int_y_end.c ****     * \return 
 205:Generated_Source\PSoC5/Pin_int_y_end.c ****     *  The right-shifted current value of the interrupt status register. Each pin 
 206:Generated_Source\PSoC5/Pin_int_y_end.c ****     *  has one bit set if it generated an interrupt event. For example, bit 0 is 
 207:Generated_Source\PSoC5/Pin_int_y_end.c ****     *  for pin 0 and bit 1 is for pin 1 of the Pins component.
 208:Generated_Source\PSoC5/Pin_int_y_end.c ****     *  
 209:Generated_Source\PSoC5/Pin_int_y_end.c ****     * \sideeffect
 210:Generated_Source\PSoC5/Pin_int_y_end.c ****     *  Clears all bits of the physical port's interrupt status register, not just
 211:Generated_Source\PSoC5/Pin_int_y_end.c ****     *  those associated with the Pins component.
 212:Generated_Source\PSoC5/Pin_int_y_end.c ****     *
 213:Generated_Source\PSoC5/Pin_int_y_end.c ****     * \funcusage
 214:Generated_Source\PSoC5/Pin_int_y_end.c ****     *  \snippet Pin_int_y_end_SUT.c usage_Pin_int_y_end_ClearInterrupt
 215:Generated_Source\PSoC5/Pin_int_y_end.c ****     *******************************************************************************/
 216:Generated_Source\PSoC5/Pin_int_y_end.c ****     uint8 Pin_int_y_end_ClearInterrupt(void)
 217:Generated_Source\PSoC5/Pin_int_y_end.c ****     {
 172              		.loc 1 217 0
 173              		.cfi_startproc
 174              		@ args = 0, pretend = 0, frame = 0
 175              		@ frame_needed = 0, uses_anonymous_args = 0
 176              		@ link register save eliminated.
 218:Generated_Source\PSoC5/Pin_int_y_end.c ****         return (Pin_int_y_end_INTSTAT & Pin_int_y_end_MASK) >> Pin_int_y_end_SHIFT;
 177              		.loc 1 218 0
 178 0000 024B     		ldr	r3, .L18
 179 0002 1878     		ldrb	r0, [r3]	@ zero_extendqisi2
 219:Generated_Source\PSoC5/Pin_int_y_end.c ****     }
 180              		.loc 1 219 0
ARM GAS  C:\Users\BETTEF~1\AppData\Local\Temp\cceXEmh4.s 			page 8


 181 0004 00F00100 		and	r0, r0, #1
 182 0008 7047     		bx	lr
 183              	.L19:
 184 000a 00BF     		.align	2
 185              	.L18:
 186 000c 82450040 		.word	1073759618
 187              		.cfi_endproc
 188              	.LFE5:
 189              		.size	Pin_int_y_end_ClearInterrupt, .-Pin_int_y_end_ClearInterrupt
 190              		.text
 191              	.Letext0:
 192              		.file 2 "Generated_Source\\PSoC5\\cytypes.h"