ARM GAS  C:\Users\BETTEF~1\AppData\Local\Temp\ccFQW5Pq.s 			page 1


   1              		.syntax unified
   2              		.cpu cortex-m3
   3              		.fpu softvfp
   4              		.eabi_attribute 20, 1
   5              		.eabi_attribute 21, 1
   6              		.eabi_attribute 23, 3
   7              		.eabi_attribute 24, 1
   8              		.eabi_attribute 25, 1
   9              		.eabi_attribute 26, 1
  10              		.eabi_attribute 30, 1
  11              		.eabi_attribute 34, 1
  12              		.eabi_attribute 18, 4
  13              		.thumb
  14              		.file	"main.c"
  15              		.text
  16              	.Ltext0:
  17              		.cfi_sections	.debug_frame
  18              		.section	.text.isr_RxD,"ax",%progbits
  19              		.align	2
  20              		.global	isr_RxD
  21              		.thumb
  22              		.thumb_func
  23              		.type	isr_RxD, %function
  24              	isr_RxD:
  25              	.LFB63:
  26              		.file 1 "main.c"
   1:main.c        **** #include "project.h"
   2:main.c        **** 
   3:main.c        **** uint8 step = 0b1100; // Start position for motor - global variabel
   4:main.c        **** uint8 enabled = 0;
   5:main.c        **** 
   6:main.c        **** CY_ISR(isr_RxD)
   7:main.c        **** {
  27              		.loc 1 7 0
  28              		.cfi_startproc
  29              		@ args = 0, pretend = 0, frame = 0
  30              		@ frame_needed = 0, uses_anonymous_args = 0
  31              		@ link register save eliminated.
   8:main.c        ****     enabled = !enabled;
  32              		.loc 1 8 0
  33 0000 034A     		ldr	r2, .L2
  34 0002 1378     		ldrb	r3, [r2]	@ zero_extendqisi2
  35 0004 B3FA83F3 		clz	r3, r3
  36 0008 5B09     		lsrs	r3, r3, #5
  37 000a 1370     		strb	r3, [r2]
  38 000c 7047     		bx	lr
  39              	.L3:
  40 000e 00BF     		.align	2
  41              	.L2:
  42 0010 00000000 		.word	.LANCHOR0
  43              		.cfi_endproc
  44              	.LFE63:
  45              		.size	isr_RxD, .-isr_RxD
  46              		.section	.text.rotateRight,"ax",%progbits
  47              		.align	2
  48              		.global	rotateRight
  49              		.thumb
ARM GAS  C:\Users\BETTEF~1\AppData\Local\Temp\ccFQW5Pq.s 			page 2


  50              		.thumb_func
  51              		.type	rotateRight, %function
  52              	rotateRight:
  53              	.LFB64:
   9:main.c        **** }
  10:main.c        **** 
  11:main.c        **** uint8 rotateRight(uint8 value)      // Shifter bit en til højre
  12:main.c        **** {
  54              		.loc 1 12 0
  55              		.cfi_startproc
  56              		@ args = 0, pretend = 0, frame = 0
  57              		@ frame_needed = 0, uses_anonymous_args = 0
  58              		@ link register save eliminated.
  59              	.LVL0:
  13:main.c        ****     return  (value >> 1) | ( (value << 3) & 15);
  60              		.loc 1 13 0
  61 0000 C300     		lsls	r3, r0, #3
  62 0002 03F00F03 		and	r3, r3, #15
  14:main.c        **** }
  63              		.loc 1 14 0
  64 0006 43EA5000 		orr	r0, r3, r0, lsr #1
  65              	.LVL1:
  66 000a 7047     		bx	lr
  67              		.cfi_endproc
  68              	.LFE64:
  69              		.size	rotateRight, .-rotateRight
  70              		.section	.text.rotateLeft,"ax",%progbits
  71              		.align	2
  72              		.global	rotateLeft
  73              		.thumb
  74              		.thumb_func
  75              		.type	rotateLeft, %function
  76              	rotateLeft:
  77              	.LFB65:
  15:main.c        **** 
  16:main.c        **** uint8 rotateLeft(uint8 value)      // Shifter bit en til venstre
  17:main.c        **** {
  78              		.loc 1 17 0
  79              		.cfi_startproc
  80              		@ args = 0, pretend = 0, frame = 0
  81              		@ frame_needed = 0, uses_anonymous_args = 0
  82              		@ link register save eliminated.
  83              	.LVL2:
  18:main.c        ****     return  (value >> 3) | ( (value << 1) & 15);
  84              		.loc 1 18 0
  85 0000 4300     		lsls	r3, r0, #1
  86 0002 03F00F03 		and	r3, r3, #15
  19:main.c        **** }
  87              		.loc 1 19 0
  88 0006 43EAD000 		orr	r0, r3, r0, lsr #3
  89              	.LVL3:
  90 000a 7047     		bx	lr
  91              		.cfi_endproc
  92              	.LFE65:
  93              		.size	rotateLeft, .-rotateLeft
  94              		.section	.text.motorRunLeft,"ax",%progbits
  95              		.align	2
ARM GAS  C:\Users\BETTEF~1\AppData\Local\Temp\ccFQW5Pq.s 			page 3


  96              		.global	motorRunLeft
  97              		.thumb
  98              		.thumb_func
  99              		.type	motorRunLeft, %function
 100              	motorRunLeft:
 101              	.LFB66:
  20:main.c        **** 
  21:main.c        **** void motorRunLeft()
  22:main.c        **** {
 102              		.loc 1 22 0
 103              		.cfi_startproc
 104              		@ args = 0, pretend = 0, frame = 0
 105              		@ frame_needed = 0, uses_anonymous_args = 0
 106 0000 10B5     		push	{r4, lr}
 107              		.cfi_def_cfa_offset 8
 108              		.cfi_offset 4, -8
 109              		.cfi_offset 14, -4
  23:main.c        ****     step = rotateLeft(step);
 110              		.loc 1 23 0
 111 0002 054C     		ldr	r4, .L8
 112 0004 2078     		ldrb	r0, [r4]	@ zero_extendqisi2
 113 0006 FFF7FEFF 		bl	rotateLeft
 114              	.LVL4:
 115 000a 2070     		strb	r0, [r4]
  24:main.c        ****     Coils_1_Write(step);              // Skriver til pins fra TopDesign (Coils)
 116              		.loc 1 24 0
 117 000c FFF7FEFF 		bl	Coils_1_Write
 118              	.LVL5:
  25:main.c        ****     CyDelay(2);
 119              		.loc 1 25 0
 120 0010 0220     		movs	r0, #2
 121 0012 FFF7FEFF 		bl	CyDelay
 122              	.LVL6:
 123 0016 10BD     		pop	{r4, pc}
 124              	.L9:
 125              		.align	2
 126              	.L8:
 127 0018 00000000 		.word	.LANCHOR1
 128              		.cfi_endproc
 129              	.LFE66:
 130              		.size	motorRunLeft, .-motorRunLeft
 131              		.section	.text.motorRunRight,"ax",%progbits
 132              		.align	2
 133              		.global	motorRunRight
 134              		.thumb
 135              		.thumb_func
 136              		.type	motorRunRight, %function
 137              	motorRunRight:
 138              	.LFB67:
  26:main.c        **** }
  27:main.c        **** 
  28:main.c        **** void motorRunRight()
  29:main.c        **** {
 139              		.loc 1 29 0
 140              		.cfi_startproc
 141              		@ args = 0, pretend = 0, frame = 0
 142              		@ frame_needed = 0, uses_anonymous_args = 0
ARM GAS  C:\Users\BETTEF~1\AppData\Local\Temp\ccFQW5Pq.s 			page 4


 143 0000 10B5     		push	{r4, lr}
 144              		.cfi_def_cfa_offset 8
 145              		.cfi_offset 4, -8
 146              		.cfi_offset 14, -4
  30:main.c        ****     step = rotateRight(step);
 147              		.loc 1 30 0
 148 0002 054C     		ldr	r4, .L12
 149 0004 2078     		ldrb	r0, [r4]	@ zero_extendqisi2
 150 0006 FFF7FEFF 		bl	rotateRight
 151              	.LVL7:
 152 000a 2070     		strb	r0, [r4]
  31:main.c        ****     Coils_1_Write(step);              // Skriver til pins fra TopDesign (Coils)
 153              		.loc 1 31 0
 154 000c FFF7FEFF 		bl	Coils_1_Write
 155              	.LVL8:
  32:main.c        ****     CyDelay(2);
 156              		.loc 1 32 0
 157 0010 0220     		movs	r0, #2
 158 0012 FFF7FEFF 		bl	CyDelay
 159              	.LVL9:
 160 0016 10BD     		pop	{r4, pc}
 161              	.L13:
 162              		.align	2
 163              	.L12:
 164 0018 00000000 		.word	.LANCHOR1
 165              		.cfi_endproc
 166              	.LFE67:
 167              		.size	motorRunRight, .-motorRunRight
 168              		.section	.text.main,"ax",%progbits
 169              		.align	2
 170              		.global	main
 171              		.thumb
 172              		.thumb_func
 173              		.type	main, %function
 174              	main:
 175              	.LFB68:
  33:main.c        **** }
  34:main.c        **** 
  35:main.c        **** int main(void)
  36:main.c        **** {
 176              		.loc 1 36 0
 177              		.cfi_startproc
 178              		@ Volatile: function does not return.
 179              		@ args = 0, pretend = 0, frame = 0
 180              		@ frame_needed = 0, uses_anonymous_args = 0
 181 0000 08B5     		push	{r3, lr}
 182              		.cfi_def_cfa_offset 8
 183              		.cfi_offset 3, -8
 184              		.cfi_offset 14, -4
  37:main.c        ****     CyGlobalIntEnable; /* Enable global interrupts. */
 185              		.loc 1 37 0
 186              	@ 37 "main.c" 1
 187 0002 62B6     		CPSIE   i
 188              	@ 0 "" 2
  38:main.c        ****     
  39:main.c        ****     UART_1_Start();
 189              		.loc 1 39 0
ARM GAS  C:\Users\BETTEF~1\AppData\Local\Temp\ccFQW5Pq.s 			page 5


 190              		.thumb
 191 0004 FFF7FEFF 		bl	UART_1_Start
 192              	.LVL10:
  40:main.c        ****     isr_RxD_StartEx(isr_RxD);
 193              		.loc 1 40 0
 194 0008 0548     		ldr	r0, .L19
 195 000a FFF7FEFF 		bl	isr_RxD_StartEx
 196              	.LVL11:
 197 000e 01E0     		b	.L17
 198              	.L16:
  41:main.c        ****  
  42:main.c        ****     for(;;)
  43:main.c        ****     {
  44:main.c        ****         while(enabled) {
  45:main.c        ****             motorRunRight();
 199              		.loc 1 45 0
 200 0010 FFF7FEFF 		bl	motorRunRight
 201              	.LVL12:
 202              	.L17:
  44:main.c        ****             motorRunRight();
 203              		.loc 1 44 0
 204 0014 034B     		ldr	r3, .L19+4
 205 0016 1B78     		ldrb	r3, [r3]	@ zero_extendqisi2
 206 0018 002B     		cmp	r3, #0
 207 001a F9D1     		bne	.L16
 208 001c FAE7     		b	.L17
 209              	.L20:
 210 001e 00BF     		.align	2
 211              	.L19:
 212 0020 00000000 		.word	isr_RxD
 213 0024 00000000 		.word	.LANCHOR0
 214              		.cfi_endproc
 215              	.LFE68:
 216              		.size	main, .-main
 217              		.global	enabled
 218              		.global	step
 219              		.data
 220              		.set	.LANCHOR1,. + 0
 221              		.type	step, %object
 222              		.size	step, 1
 223              	step:
 224 0000 0C       		.byte	12
 225              		.bss
 226              		.set	.LANCHOR0,. + 0
 227              		.type	enabled, %object
 228              		.size	enabled, 1
 229              	enabled:
 230 0000 00       		.space	1
 231              		.text
 232              	.Letext0:
 233              		.file 2 "c:\\program files (x86)\\cypress\\psoc creator\\4.0\\psoc creator\\import\\gnu\\arm\\4.9.
 234              		.file 3 "c:\\program files (x86)\\cypress\\psoc creator\\4.0\\psoc creator\\import\\gnu\\arm\\4.9.
 235              		.file 4 "Generated_Source\\PSoC5/cytypes.h"
 236              		.file 5 "Generated_Source\\PSoC5/core_cm3.h"
 237              		.file 6 "Generated_Source\\PSoC5/Coils_1.h"
 238              		.file 7 "Generated_Source\\PSoC5/CyLib.h"
 239              		.file 8 "Generated_Source\\PSoC5/UART_1.h"
ARM GAS  C:\Users\BETTEF~1\AppData\Local\Temp\ccFQW5Pq.s 			page 6


 240              		.file 9 "Generated_Source\\PSoC5/isr_RxD.h"