ARM GAS  C:\Users\BETTEF~1\AppData\Local\Temp\ccqlAopu.s 			page 1


   1              		.syntax unified
   2              		.cpu cortex-m3
   3              		.fpu softvfp
   4              		.eabi_attribute 20, 1
   5              		.eabi_attribute 21, 1
   6              		.eabi_attribute 23, 3
   7              		.eabi_attribute 24, 1
   8              		.eabi_attribute 25, 1
   9              		.eabi_attribute 26, 1
  10              		.eabi_attribute 30, 1
  11              		.eabi_attribute 34, 1
  12              		.eabi_attribute 18, 4
  13              		.thumb
  14              		.file	"main.c"
  15              		.text
  16              	.Ltext0:
  17              		.cfi_sections	.debug_frame
  18              		.section	.text.pwm_isr_1,"ax",%progbits
  19              		.align	2
  20              		.global	pwm_isr_1
  21              		.thumb
  22              		.thumb_func
  23              		.type	pwm_isr_1, %function
  24              	pwm_isr_1:
  25              	.LFB64:
  26              		.file 1 "main.c"
   1:main.c        **** #include "project.h"
   2:main.c        **** 
   3:main.c        **** uint8 xStep = 0b1100; // Start position for motor - global variable
   4:main.c        **** uint8 yStep = 0b1100; // Start position for motor - global variable
   5:main.c        **** uint16 xStepCount = 0;
   6:main.c        **** uint16 yStepCount = 0;
   7:main.c        **** uint8 xStop = 0;
   8:main.c        **** uint8 yStop = 0;
   9:main.c        **** uint16 screwCount = 0;
  10:main.c        **** uint16 openCount = 0;
  11:main.c        **** uint8 enabled = 0;
  12:main.c        **** uint8 screwDirection;
  13:main.c        **** uint8 openDirection;
  14:main.c        **** uint8 status;
  15:main.c        **** 
  16:main.c        **** int8 locateX();
  17:main.c        **** int8 locateY();
  18:main.c        **** void openBottle();
  19:main.c        **** void reset();
  20:main.c        **** void dispenseCork();
  21:main.c        **** void motorRunLeft(uint8);
  22:main.c        **** void motorRunRight(uint8);
  23:main.c        **** void updateStatus(uint8);
  24:main.c        **** 
  25:main.c        **** enum SPI_protocol {
  26:main.c        ****     
  27:main.c        ****     // Commands from PSoC-master to -slave
  28:main.c        ****     GET_STATUS = 0x00,
  29:main.c        ****     LOCATE_XY = 0x01,
  30:main.c        ****     LOCATE_Z_1 = 0x02,
  31:main.c        ****     LOCATE_Z_2 = 0x03,
ARM GAS  C:\Users\BETTEF~1\AppData\Local\Temp\ccqlAopu.s 			page 2


  32:main.c        ****     OPEN_BOTTLE = 0x04,
  33:main.c        ****     RESET = 0x05,
  34:main.c        ****     DISPENSE_CORK = 0x06,
  35:main.c        ****     
  36:main.c        ****     // Feedback messages from PSoC-slave to -master
  37:main.c        ****     VALID_XY = 0x10,
  38:main.c        ****     INVALID_XY = 0x20,
  39:main.c        ****     RESET_XY_ON_SUCCESS = 0x35, // Only if bottle has been opened
  40:main.c        ****     VALID_Z = 0x13,
  41:main.c        ****     VALID_TYPE = 0x14,
  42:main.c        ****     INVALID_TYPE = 0x21,
  43:main.c        ****     NO_BOTTLE = 0x22,
  44:main.c        ****     OPENING_SUCCESSFUL = 0x15,
  45:main.c        ****     CORK_DISPENSED = 0x16,
  46:main.c        ****     DEFAULT = 0x30,
  47:main.c        ****     WRONG_COMMAND = 0x31,
  48:main.c        ****     IN_PROCESS = 0x33,
  49:main.c        **** };
  50:main.c        **** 
  51:main.c        **** enum bottleInfo {
  52:main.c        ****     MIN_WIDTH = 2,          // Random value
  53:main.c        ****     MAX_WIDTH = 5,          // Random value
  54:main.c        ****     OFF_EDGE = 10,          // Random value
  55:main.c        ****     SCREW_THROUGH = 100,    // Random value
  56:main.c        ****     OPENED = 100,           // Random value
  57:main.c        **** };
  58:main.c        **** 
  59:main.c        **** enum voltageBoundary {
  60:main.c        ****     LOW = 72,          // Output voltage from sensor when not detecting an object
  61:main.c        **** };
  62:main.c        **** 
  63:main.c        **** enum axes {
  64:main.c        ****     X = 0,
  65:main.c        ****     Y = 1,
  66:main.c        **** };
  67:main.c        **** 
  68:main.c        **** enum operation {
  69:main.c        ****     SEARCH_XY = 1,
  70:main.c        ****     SEARCH_Z_1 = 2,
  71:main.c        ****     SEARCH_Z_2 = 3,
  72:main.c        ****     OPEN = 4,
  73:main.c        ****     RESET_AXES = 5,
  74:main.c        ****     DISPENSE = 6,
  75:main.c        **** };
  76:main.c        **** 
  77:main.c        **** enum dir
  78:main.c        **** {
  79:main.c        ****     FW = 0,
  80:main.c        ****     BW = 1,
  81:main.c        **** };
  82:main.c        **** 
  83:main.c        **** CY_ISR(isr_1)
  84:main.c        **** {
  85:main.c        ****     uint8 cmd;
  86:main.c        ****     
  87:main.c        ****     cmd = SPIS_1_ReadRxData(); // This also clears Rx Status Register
  88:main.c        ****     SPIS_1_ClearRxBuffer();
ARM GAS  C:\Users\BETTEF~1\AppData\Local\Temp\ccqlAopu.s 			page 3


  89:main.c        ****     
  90:main.c        **** 	switch(cmd) {
  91:main.c        ****         
  92:main.c        ****         // Write status of bottle to master-PSoC
  93:main.c        **** 		case GET_STATUS:
  94:main.c        **** 			updateStatus(status);
  95:main.c        **** 			break;
  96:main.c        ****         
  97:main.c        ****         // Find centre of bottle
  98:main.c        **** 		case LOCATE_XY:
  99:main.c        ****             enabled = SEARCH_XY;
 100:main.c        **** 			break;
 101:main.c        ****         
 102:main.c        ****         // Check that top of bottle is detected
 103:main.c        ****         case LOCATE_Z_1:
 104:main.c        ****             enabled = SEARCH_Z_1;
 105:main.c        ****             break;
 106:main.c        ****         
 107:main.c        ****         // Check that top of bottle is not detected 
 108:main.c        ****         case LOCATE_Z_2:
 109:main.c        ****             enabled = SEARCH_Z_2;
 110:main.c        ****             break;
 111:main.c        ****         
 112:main.c        ****         // Open bottle
 113:main.c        ****         case OPEN_BOTTLE:
 114:main.c        ****             enabled = OPEN;
 115:main.c        ****             break;
 116:main.c        ****         
 117:main.c        ****         // Position x- and y-sensor to start-positions on respectively x- and y-axes
 118:main.c        ****         case RESET:
 119:main.c        ****             enabled = RESET_AXES;
 120:main.c        ****             break;
 121:main.c        ****         
 122:main.c        ****         // Dispense of cork
 123:main.c        ****         case DISPENSE_CORK:
 124:main.c        ****             enabled = DISPENSE;
 125:main.c        ****             break;
 126:main.c        ****         
 127:main.c        ****         // Unidentified command
 128:main.c        ****         default:
 129:main.c        ****             updateStatus(WRONG_COMMAND);
 130:main.c        ****             break;
 131:main.c        ****     }
 132:main.c        **** }
 133:main.c        **** 
 134:main.c        **** CY_ISR(pwm_isr_1)
 135:main.c        **** {
  27              		.loc 1 135 0
  28              		.cfi_startproc
  29              		@ args = 0, pretend = 0, frame = 0
  30              		@ frame_needed = 0, uses_anonymous_args = 0
  31 0000 08B5     		push	{r3, lr}
  32              		.cfi_def_cfa_offset 8
  33              		.cfi_offset 3, -8
  34              		.cfi_offset 14, -4
 136:main.c        ****     PWM_1_ReadStatusRegister();
  35              		.loc 1 136 0
ARM GAS  C:\Users\BETTEF~1\AppData\Local\Temp\ccqlAopu.s 			page 4


  36 0002 FFF7FEFF 		bl	PWM_1_ReadStatusRegister
  37              	.LVL0:
 137:main.c        ****     uint8 step;
 138:main.c        ****     step = stepindex_1_Read();
  38              		.loc 1 138 0
  39 0006 FFF7FEFF 		bl	stepindex_1_Read
  40              	.LVL1:
 139:main.c        ****     if(screwDirection == FW) {
  41              		.loc 1 139 0
  42 000a 104B     		ldr	r3, .L9
  43 000c 1B78     		ldrb	r3, [r3]	@ zero_extendqisi2
  44 000e 73B9     		cbnz	r3, .L2
 140:main.c        ****         if(step >= 0x03) {
  45              		.loc 1 140 0
  46 0010 0228     		cmp	r0, #2
  47 0012 03D9     		bls	.L3
 141:main.c        ****             stepindex_1_Write(0);
  48              		.loc 1 141 0
  49 0014 0020     		movs	r0, #0
  50              	.LVL2:
  51 0016 FFF7FEFF 		bl	stepindex_1_Write
  52              	.LVL3:
  53 001a 03E0     		b	.L4
  54              	.LVL4:
  55              	.L3:
 142:main.c        ****         }
 143:main.c        ****         else {
 144:main.c        ****             stepindex_1_Write(step + 1);
  56              		.loc 1 144 0
  57 001c 0130     		adds	r0, r0, #1
  58              	.LVL5:
  59 001e C0B2     		uxtb	r0, r0
  60 0020 FFF7FEFF 		bl	stepindex_1_Write
  61              	.LVL6:
  62              	.L4:
 145:main.c        ****         }
 146:main.c        ****         ++screwCount;
  63              		.loc 1 146 0
  64 0024 0A4A     		ldr	r2, .L9+4
  65 0026 1388     		ldrh	r3, [r2]
  66 0028 0133     		adds	r3, r3, #1
  67 002a 1380     		strh	r3, [r2]	@ movhi
  68 002c 08BD     		pop	{r3, pc}
  69              	.LVL7:
  70              	.L2:
 147:main.c        ****     }
 148:main.c        ****     else { //direction == BW
 149:main.c        ****         if(step <= 0) {
  71              		.loc 1 149 0
  72 002e 18B9     		cbnz	r0, .L6
 150:main.c        ****             stepindex_1_Write(0x03);
  73              		.loc 1 150 0
  74 0030 0320     		movs	r0, #3
  75              	.LVL8:
  76 0032 FFF7FEFF 		bl	stepindex_1_Write
  77              	.LVL9:
  78 0036 03E0     		b	.L7
ARM GAS  C:\Users\BETTEF~1\AppData\Local\Temp\ccqlAopu.s 			page 5


  79              	.LVL10:
  80              	.L6:
 151:main.c        ****         }
 152:main.c        ****         else {
 153:main.c        ****             stepindex_1_Write(step-1);
  81              		.loc 1 153 0
  82 0038 0138     		subs	r0, r0, #1
  83              	.LVL11:
  84 003a C0B2     		uxtb	r0, r0
  85 003c FFF7FEFF 		bl	stepindex_1_Write
  86              	.LVL12:
  87              	.L7:
 154:main.c        ****         }
 155:main.c        ****         --screwCount;
  88              		.loc 1 155 0
  89 0040 034A     		ldr	r2, .L9+4
  90 0042 1388     		ldrh	r3, [r2]
  91 0044 013B     		subs	r3, r3, #1
  92 0046 1380     		strh	r3, [r2]	@ movhi
  93 0048 08BD     		pop	{r3, pc}
  94              	.L10:
  95 004a 00BF     		.align	2
  96              	.L9:
  97 004c 00000000 		.word	screwDirection
  98 0050 00000000 		.word	.LANCHOR0
  99              		.cfi_endproc
 100              	.LFE64:
 101              		.size	pwm_isr_1, .-pwm_isr_1
 102              		.section	.text.pwm_isr_2,"ax",%progbits
 103              		.align	2
 104              		.global	pwm_isr_2
 105              		.thumb
 106              		.thumb_func
 107              		.type	pwm_isr_2, %function
 108              	pwm_isr_2:
 109              	.LFB65:
 156:main.c        ****     }
 157:main.c        **** }
 158:main.c        **** 
 159:main.c        **** CY_ISR(pwm_isr_2)
 160:main.c        **** {
 110              		.loc 1 160 0
 111              		.cfi_startproc
 112              		@ args = 0, pretend = 0, frame = 0
 113              		@ frame_needed = 0, uses_anonymous_args = 0
 114 0000 08B5     		push	{r3, lr}
 115              		.cfi_def_cfa_offset 8
 116              		.cfi_offset 3, -8
 117              		.cfi_offset 14, -4
 161:main.c        ****     PWM_2_ReadStatusRegister();
 118              		.loc 1 161 0
 119 0002 FFF7FEFF 		bl	PWM_2_ReadStatusRegister
 120              	.LVL13:
 162:main.c        ****     uint8 step;
 163:main.c        ****     step = stepindex_2_Read();
 121              		.loc 1 163 0
 122 0006 FFF7FEFF 		bl	stepindex_2_Read
ARM GAS  C:\Users\BETTEF~1\AppData\Local\Temp\ccqlAopu.s 			page 6


 123              	.LVL14:
 164:main.c        ****     if(openDirection == FW) {
 124              		.loc 1 164 0
 125 000a 104B     		ldr	r3, .L19
 126 000c 1B78     		ldrb	r3, [r3]	@ zero_extendqisi2
 127 000e 73B9     		cbnz	r3, .L12
 165:main.c        ****         if(step >= 0x03) {
 128              		.loc 1 165 0
 129 0010 0228     		cmp	r0, #2
 130 0012 03D9     		bls	.L13
 166:main.c        ****             stepindex_2_Write(0);
 131              		.loc 1 166 0
 132 0014 0020     		movs	r0, #0
 133              	.LVL15:
 134 0016 FFF7FEFF 		bl	stepindex_2_Write
 135              	.LVL16:
 136 001a 03E0     		b	.L14
 137              	.LVL17:
 138              	.L13:
 167:main.c        ****         }
 168:main.c        ****         else {
 169:main.c        ****             stepindex_2_Write(step + 1);
 139              		.loc 1 169 0
 140 001c 0130     		adds	r0, r0, #1
 141              	.LVL18:
 142 001e C0B2     		uxtb	r0, r0
 143 0020 FFF7FEFF 		bl	stepindex_2_Write
 144              	.LVL19:
 145              	.L14:
 170:main.c        ****         }
 171:main.c        ****         ++openCount;
 146              		.loc 1 171 0
 147 0024 0A4A     		ldr	r2, .L19+4
 148 0026 5388     		ldrh	r3, [r2, #2]
 149 0028 0133     		adds	r3, r3, #1
 150 002a 5380     		strh	r3, [r2, #2]	@ movhi
 151 002c 08BD     		pop	{r3, pc}
 152              	.LVL20:
 153              	.L12:
 172:main.c        ****     }
 173:main.c        ****     else { //direction == BW
 174:main.c        ****         if(step <= 0) {
 154              		.loc 1 174 0
 155 002e 18B9     		cbnz	r0, .L16
 175:main.c        ****             stepindex_2_Write(0x03);
 156              		.loc 1 175 0
 157 0030 0320     		movs	r0, #3
 158              	.LVL21:
 159 0032 FFF7FEFF 		bl	stepindex_2_Write
 160              	.LVL22:
 161 0036 03E0     		b	.L17
 162              	.LVL23:
 163              	.L16:
 176:main.c        ****         }
 177:main.c        ****         else {
 178:main.c        ****             stepindex_2_Write(step-1);
 164              		.loc 1 178 0
ARM GAS  C:\Users\BETTEF~1\AppData\Local\Temp\ccqlAopu.s 			page 7


 165 0038 0138     		subs	r0, r0, #1
 166              	.LVL24:
 167 003a C0B2     		uxtb	r0, r0
 168 003c FFF7FEFF 		bl	stepindex_2_Write
 169              	.LVL25:
 170              	.L17:
 179:main.c        ****         }
 180:main.c        ****         --openCount;
 171              		.loc 1 180 0
 172 0040 034A     		ldr	r2, .L19+4
 173 0042 5388     		ldrh	r3, [r2, #2]
 174 0044 013B     		subs	r3, r3, #1
 175 0046 5380     		strh	r3, [r2, #2]	@ movhi
 176 0048 08BD     		pop	{r3, pc}
 177              	.L20:
 178 004a 00BF     		.align	2
 179              	.L19:
 180 004c 00000000 		.word	openDirection
 181 0050 00000000 		.word	.LANCHOR0
 182              		.cfi_endproc
 183              	.LFE65:
 184              		.size	pwm_isr_2, .-pwm_isr_2
 185              		.section	.text.isr_x,"ax",%progbits
 186              		.align	2
 187              		.global	isr_x
 188              		.thumb
 189              		.thumb_func
 190              		.type	isr_x, %function
 191              	isr_x:
 192              	.LFB66:
 181:main.c        ****     }
 182:main.c        **** }
 183:main.c        **** 
 184:main.c        **** CY_ISR(isr_x)
 185:main.c        **** {
 193              		.loc 1 185 0
 194              		.cfi_startproc
 195              		@ args = 0, pretend = 0, frame = 0
 196              		@ frame_needed = 0, uses_anonymous_args = 0
 197 0000 08B5     		push	{r3, lr}
 198              		.cfi_def_cfa_offset 8
 199              		.cfi_offset 3, -8
 200              		.cfi_offset 14, -4
 186:main.c        ****     xStop = 1;
 201              		.loc 1 186 0
 202 0002 0122     		movs	r2, #1
 203 0004 024B     		ldr	r3, .L23
 204 0006 1A71     		strb	r2, [r3, #4]
 187:main.c        ****     Pin_int_x_ClearInterrupt();
 205              		.loc 1 187 0
 206 0008 FFF7FEFF 		bl	Pin_int_x_ClearInterrupt
 207              	.LVL26:
 208 000c 08BD     		pop	{r3, pc}
 209              	.L24:
 210 000e 00BF     		.align	2
 211              	.L23:
 212 0010 00000000 		.word	.LANCHOR0
ARM GAS  C:\Users\BETTEF~1\AppData\Local\Temp\ccqlAopu.s 			page 8


 213              		.cfi_endproc
 214              	.LFE66:
 215              		.size	isr_x, .-isr_x
 216              		.section	.text.isr_y,"ax",%progbits
 217              		.align	2
 218              		.global	isr_y
 219              		.thumb
 220              		.thumb_func
 221              		.type	isr_y, %function
 222              	isr_y:
 223              	.LFB67:
 188:main.c        **** }
 189:main.c        **** 
 190:main.c        **** CY_ISR(isr_y)
 191:main.c        **** {
 224              		.loc 1 191 0
 225              		.cfi_startproc
 226              		@ args = 0, pretend = 0, frame = 0
 227              		@ frame_needed = 0, uses_anonymous_args = 0
 228 0000 08B5     		push	{r3, lr}
 229              		.cfi_def_cfa_offset 8
 230              		.cfi_offset 3, -8
 231              		.cfi_offset 14, -4
 192:main.c        ****     yStop = 1;
 232              		.loc 1 192 0
 233 0002 0122     		movs	r2, #1
 234 0004 024B     		ldr	r3, .L27
 235 0006 5A71     		strb	r2, [r3, #5]
 193:main.c        ****     Pin_int_y_ClearInterrupt();
 236              		.loc 1 193 0
 237 0008 FFF7FEFF 		bl	Pin_int_y_ClearInterrupt
 238              	.LVL27:
 239 000c 08BD     		pop	{r3, pc}
 240              	.L28:
 241 000e 00BF     		.align	2
 242              	.L27:
 243 0010 00000000 		.word	.LANCHOR0
 244              		.cfi_endproc
 245              	.LFE67:
 246              		.size	isr_y, .-isr_y
 247              		.section	.text.rotateRight,"ax",%progbits
 248              		.align	2
 249              		.global	rotateRight
 250              		.thumb
 251              		.thumb_func
 252              		.type	rotateRight, %function
 253              	rotateRight:
 254              	.LFB68:
 194:main.c        **** }
 195:main.c        **** 
 196:main.c        **** // Shifter bit en til højre
 197:main.c        **** uint8 rotateRight(uint8 step)
 198:main.c        **** {
 255              		.loc 1 198 0
 256              		.cfi_startproc
 257              		@ args = 0, pretend = 0, frame = 0
 258              		@ frame_needed = 0, uses_anonymous_args = 0
ARM GAS  C:\Users\BETTEF~1\AppData\Local\Temp\ccqlAopu.s 			page 9


 259              		@ link register save eliminated.
 260              	.LVL28:
 199:main.c        ****     return  (step >> 1) | ( (step << 3) & 15);
 261              		.loc 1 199 0
 262 0000 C300     		lsls	r3, r0, #3
 263 0002 03F00F03 		and	r3, r3, #15
 200:main.c        **** }
 264              		.loc 1 200 0
 265 0006 43EA5000 		orr	r0, r3, r0, lsr #1
 266              	.LVL29:
 267 000a 7047     		bx	lr
 268              		.cfi_endproc
 269              	.LFE68:
 270              		.size	rotateRight, .-rotateRight
 271              		.section	.text.rotateLeft,"ax",%progbits
 272              		.align	2
 273              		.global	rotateLeft
 274              		.thumb
 275              		.thumb_func
 276              		.type	rotateLeft, %function
 277              	rotateLeft:
 278              	.LFB69:
 201:main.c        **** 
 202:main.c        **** // Shifter bit en til venstre
 203:main.c        **** uint8 rotateLeft(uint8 step)
 204:main.c        **** {
 279              		.loc 1 204 0
 280              		.cfi_startproc
 281              		@ args = 0, pretend = 0, frame = 0
 282              		@ frame_needed = 0, uses_anonymous_args = 0
 283              		@ link register save eliminated.
 284              	.LVL30:
 205:main.c        ****     return  (step >> 3) | ( (step << 1) & 15);
 285              		.loc 1 205 0
 286 0000 4300     		lsls	r3, r0, #1
 287 0002 03F00F03 		and	r3, r3, #15
 206:main.c        **** }
 288              		.loc 1 206 0
 289 0006 43EAD000 		orr	r0, r3, r0, lsr #3
 290              	.LVL31:
 291 000a 7047     		bx	lr
 292              		.cfi_endproc
 293              	.LFE69:
 294              		.size	rotateLeft, .-rotateLeft
 295              		.section	.text.motorRunLeft,"ax",%progbits
 296              		.align	2
 297              		.global	motorRunLeft
 298              		.thumb
 299              		.thumb_func
 300              		.type	motorRunLeft, %function
 301              	motorRunLeft:
 302              	.LFB76:
 207:main.c        **** 
 208:main.c        **** int main(void)
 209:main.c        **** {
 210:main.c        ****     updateStatus(DEFAULT);
 211:main.c        ****     CyGlobalIntEnable;
ARM GAS  C:\Users\BETTEF~1\AppData\Local\Temp\ccqlAopu.s 			page 10


 212:main.c        ****     
 213:main.c        ****     SPIS_1_Start();
 214:main.c        **** 	SPIS_1_EnableRxInt();
 215:main.c        ****     isr_1_StartEx(isr_1);
 216:main.c        **** 	SPIS_1_ClearFIFO();
 217:main.c        **** 	SPIS_1_ClearTxBuffer();
 218:main.c        **** 
 219:main.c        ****     for(;;)
 220:main.c        ****     {
 221:main.c        ****         switch(enabled) {
 222:main.c        ****             
 223:main.c        ****             // Find centre of bottle
 224:main.c        ****             case SEARCH_XY:
 225:main.c        ****                 updateStatus(IN_PROCESS);
 226:main.c        ****                 
 227:main.c        ****                 // Locate bottle on x-axis - discontinue search on failure
 228:main.c        ****                 if(locateX()) {
 229:main.c        ****                     break;
 230:main.c        ****                 }
 231:main.c        ****                 
 232:main.c        ****                 // Locate bottle on y-axis - update status on success
 233:main.c        ****                 if(!locateY()) {
 234:main.c        ****                     updateStatus(VALID_XY);
 235:main.c        ****                 }
 236:main.c        ****                 break;
 237:main.c        ****             
 238:main.c        ****             // Check that bottle is detected
 239:main.c        ****             case SEARCH_Z_1:
 240:main.c        ****                 updateStatus(IN_PROCESS);
 241:main.c        ****                 
 242:main.c        ****                 // Start sensor
 243:main.c        ****                 ADC_SAR_Seq_Start();
 244:main.c        ****                 ADC_SAR_Seq_StartConvert();
 245:main.c        ****                 ADC_SAR_Seq_IsEndConversion(ADC_SAR_Seq_WAIT_FOR_RESULT);
 246:main.c        ****                 
 247:main.c        ****                 // Bottle detected
 248:main.c        ****                 if(ADC_SAR_Seq_GetResult16(X) > LOW) {
 249:main.c        ****                     updateStatus(VALID_Z);
 250:main.c        ****                 }
 251:main.c        ****                 
 252:main.c        ****                 // Invalid object inserted
 253:main.c        ****                 else {
 254:main.c        ****                     updateStatus(INVALID_TYPE);
 255:main.c        ****                 }
 256:main.c        ****                 
 257:main.c        ****                 // Stop sensor
 258:main.c        ****                 ADC_SAR_Seq_Stop();
 259:main.c        ****                 break;
 260:main.c        ****             
 261:main.c        ****             // Check that bottle is not detected
 262:main.c        ****             case SEARCH_Z_2:
 263:main.c        ****                 updateStatus(IN_PROCESS);
 264:main.c        ****                 
 265:main.c        ****                 // Start sensor
 266:main.c        ****                 ADC_SAR_Seq_Start();
 267:main.c        ****                 ADC_SAR_Seq_StartConvert();
 268:main.c        ****                 ADC_SAR_Seq_IsEndConversion(ADC_SAR_Seq_WAIT_FOR_RESULT);
ARM GAS  C:\Users\BETTEF~1\AppData\Local\Temp\ccqlAopu.s 			page 11


 269:main.c        ****                 
 270:main.c        ****                 // Bottle not detected
 271:main.c        ****                 if(ADC_SAR_Seq_GetResult16(X) < LOW) {
 272:main.c        ****                     updateStatus(VALID_TYPE);
 273:main.c        ****                 }
 274:main.c        ****                 
 275:main.c        ****                 // Invalid object inserted
 276:main.c        ****                 else {
 277:main.c        ****                     updateStatus(INVALID_TYPE);
 278:main.c        ****                 }
 279:main.c        ****                 
 280:main.c        ****                 // Stop sensor
 281:main.c        ****                 ADC_SAR_Seq_Stop();
 282:main.c        ****                 break;
 283:main.c        ****             
 284:main.c        ****             // Open bottle
 285:main.c        ****             case OPEN:
 286:main.c        ****                 updateStatus(IN_PROCESS);
 287:main.c        ****                 openBottle();
 288:main.c        ****                 break;
 289:main.c        ****             
 290:main.c        ****             // Reset to start-position
 291:main.c        ****             case RESET_AXES:
 292:main.c        ****                 updateStatus(IN_PROCESS);
 293:main.c        ****                 reset();
 294:main.c        ****                 break;
 295:main.c        ****             
 296:main.c        ****             // Dispense of cork
 297:main.c        ****             case DISPENSE:
 298:main.c        ****                 updateStatus(IN_PROCESS);
 299:main.c        ****                 dispenseCork();
 300:main.c        ****                 break;
 301:main.c        ****             
 302:main.c        ****             default:
 303:main.c        ****                 break;
 304:main.c        ****         }
 305:main.c        ****         enabled = 0;
 306:main.c        ****     }
 307:main.c        ****     
 308:main.c        ****     return 0;
 309:main.c        **** }
 310:main.c        **** 
 311:main.c        **** // Find mid-point of bottle on x-axis
 312:main.c        **** int8 locateX()
 313:main.c        **** {
 314:main.c        ****     uint16 ADCResultX;
 315:main.c        ****     uint8 i;
 316:main.c        ****     uint16 xPosRight;
 317:main.c        ****     uint16 xPosLeft;
 318:main.c        ****     uint16 xWidth;
 319:main.c        ****     
 320:main.c        ****     // Start sensor
 321:main.c        ****     ADC_SAR_Seq_Start();
 322:main.c        ****     ADC_SAR_Seq_StartConvert();
 323:main.c        ****     ADC_SAR_Seq_IsEndConversion(ADC_SAR_Seq_WAIT_FOR_RESULT);
 324:main.c        ****     
 325:main.c        ****     // Find right edge of bottle
ARM GAS  C:\Users\BETTEF~1\AppData\Local\Temp\ccqlAopu.s 			page 12


 326:main.c        ****     do {
 327:main.c        ****         ADCResultX = ADC_SAR_Seq_GetResult16(X);
 328:main.c        ****         motorRunLeft(X);
 329:main.c        ****     } while((ADCResultX < LOW) || (xStepCount < OFF_EDGE));
 330:main.c        ****     
 331:main.c        ****     // Bottle not detected - stop sensor
 332:main.c        ****     if(xStepCount >= OFF_EDGE) {
 333:main.c        ****         ADC_SAR_Seq_Stop();
 334:main.c        ****         updateStatus(NO_BOTTLE);
 335:main.c        ****         return -1;
 336:main.c        ****     }
 337:main.c        ****     
 338:main.c        ****     // Save position
 339:main.c        ****     xPosRight = xStepCount;
 340:main.c        ****     
 341:main.c        ****     // Find left edge of bottle
 342:main.c        ****     do {
 343:main.c        ****         ADCResultX = ADC_SAR_Seq_GetResult16(X);
 344:main.c        ****         motorRunLeft(X);
 345:main.c        ****     } while((ADCResultX > LOW) || (xStepCount < OFF_EDGE));
 346:main.c        ****     
 347:main.c        ****     // Invalid object inserted - stop sensor
 348:main.c        ****     if(xStepCount >= OFF_EDGE) {
 349:main.c        ****         ADC_SAR_Seq_Stop();
 350:main.c        ****         updateStatus(INVALID_TYPE);
 351:main.c        ****         return -1;
 352:main.c        ****     }
 353:main.c        ****     
 354:main.c        ****     // Save position
 355:main.c        ****     xPosLeft = xStepCount;
 356:main.c        ****     
 357:main.c        ****     // Stop sensor
 358:main.c        ****     ADC_SAR_Seq_Stop();
 359:main.c        ****     
 360:main.c        ****     // Calculate no. of steps to centre of bottle
 361:main.c        ****     xWidth = (xPosLeft - xPosRight)/2;
 362:main.c        ****     
 363:main.c        ****     // Bottle of incorrect type
 364:main.c        ****     if((2*xWidth < MIN_WIDTH) || (2*xWidth > MAX_WIDTH)) {
 365:main.c        ****         updateStatus(INVALID_TYPE);
 366:main.c        ****         return -1;
 367:main.c        ****     }
 368:main.c        ****     
 369:main.c        ****     // Find centre of bottle
 370:main.c        ****     for(i = xWidth; i > 0; --i) {
 371:main.c        ****         motorRunRight(X);
 372:main.c        ****     }
 373:main.c        ****     
 374:main.c        ****     // Success
 375:main.c        ****     return 0;
 376:main.c        **** }
 377:main.c        **** 
 378:main.c        **** // Find mid-point of bottle on y-axis
 379:main.c        **** int8 locateY()
 380:main.c        **** {
 381:main.c        ****     uint16 ADCResultY;
 382:main.c        ****     uint8 i;
ARM GAS  C:\Users\BETTEF~1\AppData\Local\Temp\ccqlAopu.s 			page 13


 383:main.c        ****     uint16 yPosRight;
 384:main.c        ****     uint16 yPosLeft;
 385:main.c        ****     uint16 yWidth;
 386:main.c        ****     
 387:main.c        ****     // Start sensor
 388:main.c        ****     ADC_SAR_Seq_Start();
 389:main.c        ****     ADC_SAR_Seq_StartConvert();
 390:main.c        ****     ADC_SAR_Seq_IsEndConversion(ADC_SAR_Seq_WAIT_FOR_RESULT);
 391:main.c        ****     
 392:main.c        ****     // Find right edge of bottle
 393:main.c        ****     do {
 394:main.c        ****         ADCResultY = ADC_SAR_Seq_GetResult16(Y);
 395:main.c        ****         motorRunLeft(Y);
 396:main.c        ****     } while((ADCResultY < LOW) || (yStepCount < OFF_EDGE));
 397:main.c        ****     
 398:main.c        ****     // No bottle detected - stop sensor
 399:main.c        ****     if(yStepCount >= OFF_EDGE) {
 400:main.c        ****         ADC_SAR_Seq_Stop();
 401:main.c        ****         updateStatus(NO_BOTTLE);
 402:main.c        ****         return -1;
 403:main.c        ****     }
 404:main.c        ****     
 405:main.c        ****     // Save position
 406:main.c        ****     yPosRight = yStepCount;
 407:main.c        ****     
 408:main.c        ****     // Find left edge of bottle
 409:main.c        ****     do {
 410:main.c        ****         ADCResultY = ADC_SAR_Seq_GetResult16(Y);
 411:main.c        ****         motorRunLeft(Y);
 412:main.c        ****     } while((ADCResultY > LOW) || (yStepCount < OFF_EDGE));
 413:main.c        ****     
 414:main.c        ****     // Invalid object inserted - stop sensor
 415:main.c        ****     if(yStepCount >= OFF_EDGE) {
 416:main.c        ****         ADC_SAR_Seq_Stop();
 417:main.c        ****         updateStatus(INVALID_TYPE);
 418:main.c        ****         return -1;
 419:main.c        ****     }
 420:main.c        ****     
 421:main.c        ****     // Save position
 422:main.c        ****     yPosLeft = yStepCount;
 423:main.c        ****     
 424:main.c        ****     // Stop sensor
 425:main.c        ****     ADC_SAR_Seq_Stop();
 426:main.c        ****     
 427:main.c        ****     // Calculate no. of steps to centre of bottle
 428:main.c        ****     yWidth = (yPosLeft - yPosRight)/2;
 429:main.c        ****     
 430:main.c        ****     // Bottle of incorrect type
 431:main.c        ****     if((2*yWidth < MIN_WIDTH) || (2*yWidth > MAX_WIDTH)) {
 432:main.c        ****         updateStatus(INVALID_TYPE);
 433:main.c        ****         return -1;
 434:main.c        ****     }
 435:main.c        ****     
 436:main.c        ****     // Find centre of bottle
 437:main.c        ****     for(i = yWidth; i > 0; --i) {
 438:main.c        ****         motorRunRight(Y);
 439:main.c        ****     }
ARM GAS  C:\Users\BETTEF~1\AppData\Local\Temp\ccqlAopu.s 			page 14


 440:main.c        ****     
 441:main.c        ****     // Success
 442:main.c        ****     return 0;
 443:main.c        **** }
 444:main.c        **** 
 445:main.c        **** void openBottle()
 446:main.c        **** {
 447:main.c        ****     
 448:main.c        ****     // Screw the cork
 449:main.c        ****     screwDirection = FW;
 450:main.c        ****     
 451:main.c        ****     Enable_1_Write(1);
 452:main.c        ****     
 453:main.c        ****     PWM_1_Start();
 454:main.c        ****     pwm_isr_1_StartEx(pwm_isr_1);
 455:main.c        ****     stepindex_1_Write(1); //Start på 1, fordi fullstep.
 456:main.c        ****     
 457:main.c        ****     while(screwCount < SCREW_THROUGH) {}
 458:main.c        ****     
 459:main.c        ****     PWM_1_Stop();
 460:main.c        ****     Enable_1_Write(0);
 461:main.c        ****     
 462:main.c        ****     // Open the bottle
 463:main.c        ****     openDirection = FW;
 464:main.c        ****     
 465:main.c        ****     Enable_2_Write(1);
 466:main.c        ****     
 467:main.c        ****     PWM_2_Start();
 468:main.c        ****     pwm_isr_2_StartEx(pwm_isr_2);
 469:main.c        ****     stepindex_2_Write(1); //Start på 1, fordi fullstep.
 470:main.c        ****     
 471:main.c        ****     while(openCount < OPENED) {}
 472:main.c        ****     
 473:main.c        ****     PWM_2_Stop();
 474:main.c        ****     Enable_2_Write(0);
 475:main.c        ****     
 476:main.c        ****     updateStatus(OPENING_SUCCESSFUL);
 477:main.c        **** }
 478:main.c        **** 
 479:main.c        **** void reset()
 480:main.c        **** {
 481:main.c        ****     
 482:main.c        ****     // Wait for interrupt
 483:main.c        ****     while(!yStop) {
 484:main.c        ****         motorRunRight(Y);
 485:main.c        ****     }
 486:main.c        ****     
 487:main.c        ****     // Wait for interrupt
 488:main.c        ****     while(!xStop) {
 489:main.c        ****         motorRunRight(X);
 490:main.c        ****     }
 491:main.c        ****     
 492:main.c        ****     xStop = 0;
 493:main.c        ****     yStop = 0;
 494:main.c        ****     
 495:main.c        ****     if(status == OPENING_SUCCESSFUL) {
 496:main.c        ****         updateStatus(RESET_XY_ON_SUCCESS);
ARM GAS  C:\Users\BETTEF~1\AppData\Local\Temp\ccqlAopu.s 			page 15


 497:main.c        ****     }
 498:main.c        **** }
 499:main.c        **** 
 500:main.c        **** void dispenseCork()
 501:main.c        **** {
 502:main.c        ****     
 503:main.c        ****     // Unscrew the cork
 504:main.c        ****     screwDirection = BW;
 505:main.c        ****     
 506:main.c        ****     Enable_1_Write(1);
 507:main.c        ****     
 508:main.c        ****     PWM_1_Start();
 509:main.c        ****     pwm_isr_1_StartEx(pwm_isr_1);
 510:main.c        ****     stepindex_1_Write(1); //Start på 1, fordi fullstep.
 511:main.c        ****     
 512:main.c        ****     while(screwCount > 0) {}
 513:main.c        ****     
 514:main.c        ****     PWM_1_Stop();
 515:main.c        ****     Enable_1_Write(0);
 516:main.c        ****     
 517:main.c        ****     // Reset cork-pulling mechanism
 518:main.c        ****     openDirection = BW;
 519:main.c        ****     
 520:main.c        ****     Enable_2_Write(1);
 521:main.c        ****     
 522:main.c        ****     PWM_2_Start();
 523:main.c        ****     pwm_isr_2_StartEx(pwm_isr_2);
 524:main.c        ****     stepindex_2_Write(1); //Start på 1, fordi fullstep.
 525:main.c        ****     
 526:main.c        ****     while(openCount > 0) {}
 527:main.c        ****     
 528:main.c        ****     PWM_2_Stop();
 529:main.c        ****     Enable_2_Write(0);
 530:main.c        ****     
 531:main.c        ****     updateStatus(CORK_DISPENSED);
 532:main.c        **** }
 533:main.c        **** 
 534:main.c        **** void motorRunLeft(uint8 axis)
 535:main.c        **** {
 303              		.loc 1 535 0
 304              		.cfi_startproc
 305              		@ args = 0, pretend = 0, frame = 0
 306              		@ frame_needed = 0, uses_anonymous_args = 0
 307              	.LVL32:
 308 0000 38B5     		push	{r3, r4, r5, lr}
 309              		.cfi_def_cfa_offset 16
 310              		.cfi_offset 3, -16
 311              		.cfi_offset 4, -12
 312              		.cfi_offset 5, -8
 313              		.cfi_offset 14, -4
 536:main.c        ****     int i;
 537:main.c        ****     if(axis == X) {
 314              		.loc 1 537 0
 315 0002 68B1     		cbz	r0, .L37
 316 0004 0024     		movs	r4, #0
 317 0006 1EE0     		b	.L33
 318              	.LVL33:
ARM GAS  C:\Users\BETTEF~1\AppData\Local\Temp\ccqlAopu.s 			page 16


 319              	.L34:
 538:main.c        ****         for(i = 0; i < 10; ++i) {               // Value 10 chosen arbitrarily
 539:main.c        ****             xStep = rotateLeft(xStep);
 320              		.loc 1 539 0 discriminator 3
 321 0008 124D     		ldr	r5, .L39
 322 000a 2878     		ldrb	r0, [r5]	@ zero_extendqisi2
 323 000c FFF7FEFF 		bl	rotateLeft
 324              	.LVL34:
 325 0010 2870     		strb	r0, [r5]
 540:main.c        ****             Coils_X_Write(xStep);               // Skriver til pins fra TopDesign (Coils)
 326              		.loc 1 540 0 discriminator 3
 327 0012 FFF7FEFF 		bl	Coils_X_Write
 328              	.LVL35:
 541:main.c        ****             CyDelay(2);
 329              		.loc 1 541 0 discriminator 3
 330 0016 0220     		movs	r0, #2
 331 0018 FFF7FEFF 		bl	CyDelay
 332              	.LVL36:
 538:main.c        ****         for(i = 0; i < 10; ++i) {               // Value 10 chosen arbitrarily
 333              		.loc 1 538 0 discriminator 3
 334 001c 0134     		adds	r4, r4, #1
 335              	.LVL37:
 336 001e 00E0     		b	.L32
 337              	.LVL38:
 338              	.L37:
 339 0020 0024     		movs	r4, #0
 340              	.LVL39:
 341              	.L32:
 538:main.c        ****         for(i = 0; i < 10; ++i) {               // Value 10 chosen arbitrarily
 342              		.loc 1 538 0 is_stmt 0 discriminator 1
 343 0022 092C     		cmp	r4, #9
 344 0024 F0DD     		ble	.L34
 542:main.c        ****         }
 543:main.c        ****         ++xStepCount;
 345              		.loc 1 543 0 is_stmt 1
 346 0026 0C4A     		ldr	r2, .L39+4
 347 0028 D388     		ldrh	r3, [r2, #6]
 348 002a 0133     		adds	r3, r3, #1
 349 002c D380     		strh	r3, [r2, #6]	@ movhi
 350 002e 38BD     		pop	{r3, r4, r5, pc}
 351              	.LVL40:
 352              	.L36:
 544:main.c        ****     }
 545:main.c        ****     else {
 546:main.c        ****         for(i = 0; i < 10; ++i) {               // Value 10 chosen arbitrarily
 547:main.c        ****             yStep = rotateLeft(yStep);
 353              		.loc 1 547 0 discriminator 3
 354 0030 084D     		ldr	r5, .L39
 355 0032 6878     		ldrb	r0, [r5, #1]	@ zero_extendqisi2
 356 0034 FFF7FEFF 		bl	rotateLeft
 357              	.LVL41:
 358 0038 6870     		strb	r0, [r5, #1]
 548:main.c        ****             Coils_Y_Write(yStep);               // Skriver til pins fra TopDesign (Coils)
 359              		.loc 1 548 0 discriminator 3
 360 003a FFF7FEFF 		bl	Coils_Y_Write
 361              	.LVL42:
 549:main.c        ****             CyDelay(2);
ARM GAS  C:\Users\BETTEF~1\AppData\Local\Temp\ccqlAopu.s 			page 17


 362              		.loc 1 549 0 discriminator 3
 363 003e 0220     		movs	r0, #2
 364 0040 FFF7FEFF 		bl	CyDelay
 365              	.LVL43:
 546:main.c        ****             yStep = rotateLeft(yStep);
 366              		.loc 1 546 0 discriminator 3
 367 0044 0134     		adds	r4, r4, #1
 368              	.LVL44:
 369              	.L33:
 546:main.c        ****             yStep = rotateLeft(yStep);
 370              		.loc 1 546 0 is_stmt 0 discriminator 1
 371 0046 092C     		cmp	r4, #9
 372 0048 F2DD     		ble	.L36
 550:main.c        ****         }
 551:main.c        ****         ++yStepCount;
 373              		.loc 1 551 0 is_stmt 1
 374 004a 034A     		ldr	r2, .L39+4
 375 004c 1389     		ldrh	r3, [r2, #8]
 376 004e 0133     		adds	r3, r3, #1
 377 0050 1381     		strh	r3, [r2, #8]	@ movhi
 378 0052 38BD     		pop	{r3, r4, r5, pc}
 379              	.LVL45:
 380              	.L40:
 381              		.align	2
 382              	.L39:
 383 0054 00000000 		.word	.LANCHOR1
 384 0058 00000000 		.word	.LANCHOR0
 385              		.cfi_endproc
 386              	.LFE76:
 387              		.size	motorRunLeft, .-motorRunLeft
 388              		.section	.text.motorRunRight,"ax",%progbits
 389              		.align	2
 390              		.global	motorRunRight
 391              		.thumb
 392              		.thumb_func
 393              		.type	motorRunRight, %function
 394              	motorRunRight:
 395              	.LFB77:
 552:main.c        ****     }
 553:main.c        **** }
 554:main.c        **** 
 555:main.c        **** void motorRunRight(uint8 axis)
 556:main.c        **** {
 396              		.loc 1 556 0
 397              		.cfi_startproc
 398              		@ args = 0, pretend = 0, frame = 0
 399              		@ frame_needed = 0, uses_anonymous_args = 0
 400              	.LVL46:
 401 0000 38B5     		push	{r3, r4, r5, lr}
 402              		.cfi_def_cfa_offset 16
 403              		.cfi_offset 3, -16
 404              		.cfi_offset 4, -12
 405              		.cfi_offset 5, -8
 406              		.cfi_offset 14, -4
 557:main.c        ****     int i;
 558:main.c        ****     if(axis == X) {
 407              		.loc 1 558 0
ARM GAS  C:\Users\BETTEF~1\AppData\Local\Temp\ccqlAopu.s 			page 18


 408 0002 68B1     		cbz	r0, .L47
 409 0004 0024     		movs	r4, #0
 410 0006 1EE0     		b	.L43
 411              	.LVL47:
 412              	.L44:
 559:main.c        ****         for(i = 0; i < 10; ++i) {               // Value 10 chosen arbitrarily
 560:main.c        ****             xStep = rotateRight(xStep);
 413              		.loc 1 560 0 discriminator 3
 414 0008 124D     		ldr	r5, .L49
 415 000a 2878     		ldrb	r0, [r5]	@ zero_extendqisi2
 416 000c FFF7FEFF 		bl	rotateRight
 417              	.LVL48:
 418 0010 2870     		strb	r0, [r5]
 561:main.c        ****             Coils_X_Write(xStep);               // Skriver til pins fra TopDesign (Coils)
 419              		.loc 1 561 0 discriminator 3
 420 0012 FFF7FEFF 		bl	Coils_X_Write
 421              	.LVL49:
 562:main.c        ****             CyDelay(2);
 422              		.loc 1 562 0 discriminator 3
 423 0016 0220     		movs	r0, #2
 424 0018 FFF7FEFF 		bl	CyDelay
 425              	.LVL50:
 559:main.c        ****         for(i = 0; i < 10; ++i) {               // Value 10 chosen arbitrarily
 426              		.loc 1 559 0 discriminator 3
 427 001c 0134     		adds	r4, r4, #1
 428              	.LVL51:
 429 001e 00E0     		b	.L42
 430              	.LVL52:
 431              	.L47:
 432 0020 0024     		movs	r4, #0
 433              	.LVL53:
 434              	.L42:
 559:main.c        ****         for(i = 0; i < 10; ++i) {               // Value 10 chosen arbitrarily
 435              		.loc 1 559 0 is_stmt 0 discriminator 1
 436 0022 092C     		cmp	r4, #9
 437 0024 F0DD     		ble	.L44
 563:main.c        ****         }
 564:main.c        ****         --xStepCount;
 438              		.loc 1 564 0 is_stmt 1
 439 0026 0C4A     		ldr	r2, .L49+4
 440 0028 D388     		ldrh	r3, [r2, #6]
 441 002a 013B     		subs	r3, r3, #1
 442 002c D380     		strh	r3, [r2, #6]	@ movhi
 443 002e 38BD     		pop	{r3, r4, r5, pc}
 444              	.LVL54:
 445              	.L46:
 565:main.c        ****     }
 566:main.c        ****     else {
 567:main.c        ****         for(i = 0; i < 10; ++i) {               // Value 10 chosen arbitrarily
 568:main.c        ****             yStep = rotateRight(yStep);
 446              		.loc 1 568 0 discriminator 3
 447 0030 084D     		ldr	r5, .L49
 448 0032 6878     		ldrb	r0, [r5, #1]	@ zero_extendqisi2
 449 0034 FFF7FEFF 		bl	rotateRight
 450              	.LVL55:
 451 0038 6870     		strb	r0, [r5, #1]
 569:main.c        ****             Coils_Y_Write(yStep);               // Skriver til pins fra TopDesign (Coils)
ARM GAS  C:\Users\BETTEF~1\AppData\Local\Temp\ccqlAopu.s 			page 19


 452              		.loc 1 569 0 discriminator 3
 453 003a FFF7FEFF 		bl	Coils_Y_Write
 454              	.LVL56:
 570:main.c        ****             CyDelay(2);
 455              		.loc 1 570 0 discriminator 3
 456 003e 0220     		movs	r0, #2
 457 0040 FFF7FEFF 		bl	CyDelay
 458              	.LVL57:
 567:main.c        ****             yStep = rotateRight(yStep);
 459              		.loc 1 567 0 discriminator 3
 460 0044 0134     		adds	r4, r4, #1
 461              	.LVL58:
 462              	.L43:
 567:main.c        ****             yStep = rotateRight(yStep);
 463              		.loc 1 567 0 is_stmt 0 discriminator 1
 464 0046 092C     		cmp	r4, #9
 465 0048 F2DD     		ble	.L46
 571:main.c        ****         }
 572:main.c        ****         --yStepCount;
 466              		.loc 1 572 0 is_stmt 1
 467 004a 034A     		ldr	r2, .L49+4
 468 004c 1389     		ldrh	r3, [r2, #8]
 469 004e 013B     		subs	r3, r3, #1
 470 0050 1381     		strh	r3, [r2, #8]	@ movhi
 471 0052 38BD     		pop	{r3, r4, r5, pc}
 472              	.LVL59:
 473              	.L50:
 474              		.align	2
 475              	.L49:
 476 0054 00000000 		.word	.LANCHOR1
 477 0058 00000000 		.word	.LANCHOR0
 478              		.cfi_endproc
 479              	.LFE77:
 480              		.size	motorRunRight, .-motorRunRight
 481              		.section	.text.updateStatus,"ax",%progbits
 482              		.align	2
 483              		.global	updateStatus
 484              		.thumb
 485              		.thumb_func
 486              		.type	updateStatus, %function
 487              	updateStatus:
 488              	.LFB78:
 573:main.c        ****     }
 574:main.c        **** }
 575:main.c        **** 
 576:main.c        **** // Update status of slave-PSoC/message to be sent to master-PSoC
 577:main.c        **** void updateStatus(uint8 stat)
 578:main.c        **** {
 489              		.loc 1 578 0
 490              		.cfi_startproc
 491              		@ args = 0, pretend = 0, frame = 0
 492              		@ frame_needed = 0, uses_anonymous_args = 0
 493              	.LVL60:
 494 0000 10B5     		push	{r4, lr}
 495              		.cfi_def_cfa_offset 8
 496              		.cfi_offset 4, -8
 497              		.cfi_offset 14, -4
ARM GAS  C:\Users\BETTEF~1\AppData\Local\Temp\ccqlAopu.s 			page 20


 579:main.c        ****     status = stat;
 498              		.loc 1 579 0
 499 0002 044C     		ldr	r4, .L53
 500 0004 2070     		strb	r0, [r4]
 580:main.c        ****     SPIS_1_ClearTxBuffer();
 501              		.loc 1 580 0
 502 0006 FFF7FEFF 		bl	SPIS_1_ClearTxBuffer
 503              	.LVL61:
 581:main.c        ****     SPIS_1_WriteTxData(status);
 504              		.loc 1 581 0
 505 000a 2078     		ldrb	r0, [r4]	@ zero_extendqisi2
 506 000c FFF7FEFF 		bl	SPIS_1_WriteTxData
 507              	.LVL62:
 508 0010 10BD     		pop	{r4, pc}
 509              	.L54:
 510 0012 00BF     		.align	2
 511              	.L53:
 512 0014 00000000 		.word	status
 513              		.cfi_endproc
 514              	.LFE78:
 515              		.size	updateStatus, .-updateStatus
 516              		.section	.text.isr_1,"ax",%progbits
 517              		.align	2
 518              		.global	isr_1
 519              		.thumb
 520              		.thumb_func
 521              		.type	isr_1, %function
 522              	isr_1:
 523              	.LFB63:
  84:main.c        ****     uint8 cmd;
 524              		.loc 1 84 0
 525              		.cfi_startproc
 526              		@ args = 0, pretend = 0, frame = 0
 527              		@ frame_needed = 0, uses_anonymous_args = 0
 528 0000 10B5     		push	{r4, lr}
 529              		.cfi_def_cfa_offset 8
 530              		.cfi_offset 4, -8
 531              		.cfi_offset 14, -4
  87:main.c        ****     SPIS_1_ClearRxBuffer();
 532              		.loc 1 87 0
 533 0002 FFF7FEFF 		bl	SPIS_1_ReadRxData
 534              	.LVL63:
 535 0006 0446     		mov	r4, r0
 536              	.LVL64:
  88:main.c        ****     
 537              		.loc 1 88 0
 538 0008 FFF7FEFF 		bl	SPIS_1_ClearRxBuffer
 539              	.LVL65:
  90:main.c        ****         
 540              		.loc 1 90 0
 541 000c 062C     		cmp	r4, #6
 542 000e 22D8     		bhi	.L56
 543 0010 DFE804F0 		tbb	[pc, r4]
 544              	.L58:
 545 0014 04       		.byte	(.L57-.L58)/2
 546 0015 09       		.byte	(.L59-.L58)/2
 547 0016 0D       		.byte	(.L60-.L58)/2
ARM GAS  C:\Users\BETTEF~1\AppData\Local\Temp\ccqlAopu.s 			page 21


 548 0017 11       		.byte	(.L61-.L58)/2
 549 0018 15       		.byte	(.L62-.L58)/2
 550 0019 19       		.byte	(.L63-.L58)/2
 551 001a 1D       		.byte	(.L64-.L58)/2
 552 001b 00       		.p2align 1
 553              	.L57:
  94:main.c        **** 			break;
 554              		.loc 1 94 0
 555 001c 104B     		ldr	r3, .L67
 556 001e 1878     		ldrb	r0, [r3]	@ zero_extendqisi2
 557 0020 FFF7FEFF 		bl	updateStatus
 558              	.LVL66:
  95:main.c        ****         
 559              		.loc 1 95 0
 560 0024 10BD     		pop	{r4, pc}
 561              	.LVL67:
 562              	.L59:
  99:main.c        **** 			break;
 563              		.loc 1 99 0
 564 0026 0122     		movs	r2, #1
 565 0028 0E4B     		ldr	r3, .L67+4
 566 002a 9A72     		strb	r2, [r3, #10]
 100:main.c        ****         
 567              		.loc 1 100 0
 568 002c 10BD     		pop	{r4, pc}
 569              	.LVL68:
 570              	.L60:
 104:main.c        ****             break;
 571              		.loc 1 104 0
 572 002e 0222     		movs	r2, #2
 573 0030 0C4B     		ldr	r3, .L67+4
 574 0032 9A72     		strb	r2, [r3, #10]
 105:main.c        ****         
 575              		.loc 1 105 0
 576 0034 10BD     		pop	{r4, pc}
 577              	.LVL69:
 578              	.L61:
 109:main.c        ****             break;
 579              		.loc 1 109 0
 580 0036 0322     		movs	r2, #3
 581 0038 0A4B     		ldr	r3, .L67+4
 582 003a 9A72     		strb	r2, [r3, #10]
 110:main.c        ****         
 583              		.loc 1 110 0
 584 003c 10BD     		pop	{r4, pc}
 585              	.LVL70:
 586              	.L62:
 114:main.c        ****             break;
 587              		.loc 1 114 0
 588 003e 0422     		movs	r2, #4
 589 0040 084B     		ldr	r3, .L67+4
 590 0042 9A72     		strb	r2, [r3, #10]
 115:main.c        ****         
 591              		.loc 1 115 0
 592 0044 10BD     		pop	{r4, pc}
 593              	.LVL71:
 594              	.L63:
ARM GAS  C:\Users\BETTEF~1\AppData\Local\Temp\ccqlAopu.s 			page 22


 119:main.c        ****             break;
 595              		.loc 1 119 0
 596 0046 0522     		movs	r2, #5
 597 0048 064B     		ldr	r3, .L67+4
 598 004a 9A72     		strb	r2, [r3, #10]
 120:main.c        ****         
 599              		.loc 1 120 0
 600 004c 10BD     		pop	{r4, pc}
 601              	.LVL72:
 602              	.L64:
 124:main.c        ****             break;
 603              		.loc 1 124 0
 604 004e 0622     		movs	r2, #6
 605 0050 044B     		ldr	r3, .L67+4
 606 0052 9A72     		strb	r2, [r3, #10]
 125:main.c        ****         
 607              		.loc 1 125 0
 608 0054 10BD     		pop	{r4, pc}
 609              	.LVL73:
 610              	.L56:
 129:main.c        ****             break;
 611              		.loc 1 129 0
 612 0056 3120     		movs	r0, #49
 613 0058 FFF7FEFF 		bl	updateStatus
 614              	.LVL74:
 615 005c 10BD     		pop	{r4, pc}
 616              	.LVL75:
 617              	.L68:
 618 005e 00BF     		.align	2
 619              	.L67:
 620 0060 00000000 		.word	status
 621 0064 00000000 		.word	.LANCHOR0
 622              		.cfi_endproc
 623              	.LFE63:
 624              		.size	isr_1, .-isr_1
 625              		.section	.text.locateX,"ax",%progbits
 626              		.align	2
 627              		.global	locateX
 628              		.thumb
 629              		.thumb_func
 630              		.type	locateX, %function
 631              	locateX:
 632              	.LFB71:
 313:main.c        ****     uint16 ADCResultX;
 633              		.loc 1 313 0
 634              		.cfi_startproc
 635              		@ args = 0, pretend = 0, frame = 0
 636              		@ frame_needed = 0, uses_anonymous_args = 0
 637 0000 70B5     		push	{r4, r5, r6, lr}
 638              		.cfi_def_cfa_offset 16
 639              		.cfi_offset 4, -16
 640              		.cfi_offset 5, -12
 641              		.cfi_offset 6, -8
 642              		.cfi_offset 14, -4
 321:main.c        ****     ADC_SAR_Seq_StartConvert();
 643              		.loc 1 321 0
 644 0002 FFF7FEFF 		bl	ADC_SAR_Seq_Start
ARM GAS  C:\Users\BETTEF~1\AppData\Local\Temp\ccqlAopu.s 			page 23


 645              	.LVL76:
 322:main.c        ****     ADC_SAR_Seq_IsEndConversion(ADC_SAR_Seq_WAIT_FOR_RESULT);
 646              		.loc 1 322 0
 647 0006 FFF7FEFF 		bl	ADC_SAR_Seq_StartConvert
 648              	.LVL77:
 323:main.c        ****     
 649              		.loc 1 323 0
 650 000a 0020     		movs	r0, #0
 651 000c FFF7FEFF 		bl	ADC_SAR_Seq_IsEndConversion
 652              	.LVL78:
 653              	.L70:
 327:main.c        ****         motorRunLeft(X);
 654              		.loc 1 327 0 discriminator 3
 655 0010 0020     		movs	r0, #0
 656 0012 FFF7FEFF 		bl	ADC_SAR_Seq_GetResult16
 657              	.LVL79:
 658 0016 84B2     		uxth	r4, r0
 659              	.LVL80:
 328:main.c        ****     } while((ADCResultX < LOW) || (xStepCount < OFF_EDGE));
 660              		.loc 1 328 0 discriminator 3
 661 0018 0020     		movs	r0, #0
 662 001a FFF7FEFF 		bl	motorRunLeft
 663              	.LVL81:
 329:main.c        ****     
 664              		.loc 1 329 0 discriminator 3
 665 001e 472C     		cmp	r4, #71
 666 0020 F6D9     		bls	.L70
 329:main.c        ****     
 667              		.loc 1 329 0 is_stmt 0 discriminator 2
 668 0022 1E4B     		ldr	r3, .L79
 669 0024 DE88     		ldrh	r6, [r3, #6]
 670 0026 092E     		cmp	r6, #9
 671 0028 F2D9     		bls	.L70
 332:main.c        ****         ADC_SAR_Seq_Stop();
 672              		.loc 1 332 0 is_stmt 1
 673 002a 06D9     		bls	.L73
 333:main.c        ****         updateStatus(NO_BOTTLE);
 674              		.loc 1 333 0
 675 002c FFF7FEFF 		bl	ADC_SAR_Seq_Stop
 676              	.LVL82:
 334:main.c        ****         return -1;
 677              		.loc 1 334 0
 678 0030 2220     		movs	r0, #34
 679 0032 FFF7FEFF 		bl	updateStatus
 680              	.LVL83:
 335:main.c        ****     }
 681              		.loc 1 335 0
 682 0036 FF20     		movs	r0, #255
 683 0038 2EE0     		b	.L72
 684              	.LVL84:
 685              	.L73:
 343:main.c        ****         motorRunLeft(X);
 686              		.loc 1 343 0 discriminator 3
 687 003a 0020     		movs	r0, #0
 688 003c FFF7FEFF 		bl	ADC_SAR_Seq_GetResult16
 689              	.LVL85:
 690 0040 85B2     		uxth	r5, r0
ARM GAS  C:\Users\BETTEF~1\AppData\Local\Temp\ccqlAopu.s 			page 24


 691              	.LVL86:
 344:main.c        ****     } while((ADCResultX > LOW) || (xStepCount < OFF_EDGE));
 692              		.loc 1 344 0 discriminator 3
 693 0042 0020     		movs	r0, #0
 694 0044 FFF7FEFF 		bl	motorRunLeft
 695              	.LVL87:
 345:main.c        ****     
 696              		.loc 1 345 0 discriminator 3
 697 0048 482D     		cmp	r5, #72
 698 004a F6D8     		bhi	.L73
 345:main.c        ****     
 699              		.loc 1 345 0 is_stmt 0 discriminator 2
 700 004c 134B     		ldr	r3, .L79
 701 004e DC88     		ldrh	r4, [r3, #6]
 702 0050 092C     		cmp	r4, #9
 703 0052 F2D9     		bls	.L73
 348:main.c        ****         ADC_SAR_Seq_Stop();
 704              		.loc 1 348 0 is_stmt 1
 705 0054 06D9     		bls	.L74
 349:main.c        ****         updateStatus(INVALID_TYPE);
 706              		.loc 1 349 0
 707 0056 FFF7FEFF 		bl	ADC_SAR_Seq_Stop
 708              	.LVL88:
 350:main.c        ****         return -1;
 709              		.loc 1 350 0
 710 005a 2120     		movs	r0, #33
 711 005c FFF7FEFF 		bl	updateStatus
 712              	.LVL89:
 351:main.c        ****     }
 713              		.loc 1 351 0
 714 0060 FF20     		movs	r0, #255
 715 0062 19E0     		b	.L72
 716              	.L74:
 717              	.LVL90:
 358:main.c        ****     
 718              		.loc 1 358 0
 719 0064 FFF7FEFF 		bl	ADC_SAR_Seq_Stop
 720              	.LVL91:
 361:main.c        ****     
 721              		.loc 1 361 0
 722 0068 A41B     		subs	r4, r4, r6
 723              	.LVL92:
 724 006a 04EBD474 		add	r4, r4, r4, lsr #31
 725 006e 6410     		asrs	r4, r4, #1
 726              	.LVL93:
 364:main.c        ****         updateStatus(INVALID_TYPE);
 727              		.loc 1 364 0
 728 0070 A3B2     		uxth	r3, r4
 729 0072 5B00     		lsls	r3, r3, #1
 730 0074 023B     		subs	r3, r3, #2
 731 0076 032B     		cmp	r3, #3
 732 0078 04D9     		bls	.L75
 365:main.c        ****         return -1;
 733              		.loc 1 365 0
 734 007a 2120     		movs	r0, #33
 735 007c FFF7FEFF 		bl	updateStatus
 736              	.LVL94:
ARM GAS  C:\Users\BETTEF~1\AppData\Local\Temp\ccqlAopu.s 			page 25


 366:main.c        ****     }
 737              		.loc 1 366 0
 738 0080 FF20     		movs	r0, #255
 739 0082 09E0     		b	.L72
 740              	.L75:
 370:main.c        ****         motorRunRight(X);
 741              		.loc 1 370 0
 742 0084 E4B2     		uxtb	r4, r4
 743              	.LVL95:
 744 0086 04E0     		b	.L76
 745              	.L77:
 371:main.c        ****     }
 746              		.loc 1 371 0 discriminator 3
 747 0088 0020     		movs	r0, #0
 748 008a FFF7FEFF 		bl	motorRunRight
 749              	.LVL96:
 370:main.c        ****         motorRunRight(X);
 750              		.loc 1 370 0 discriminator 3
 751 008e 013C     		subs	r4, r4, #1
 752              	.LVL97:
 753 0090 E4B2     		uxtb	r4, r4
 754              	.LVL98:
 755              	.L76:
 370:main.c        ****         motorRunRight(X);
 756              		.loc 1 370 0 is_stmt 0 discriminator 1
 757 0092 002C     		cmp	r4, #0
 758 0094 F8D1     		bne	.L77
 375:main.c        **** }
 759              		.loc 1 375 0 is_stmt 1
 760 0096 0020     		movs	r0, #0
 761              	.LVL99:
 762              	.L72:
 376:main.c        **** 
 763              		.loc 1 376 0
 764 0098 40B2     		sxtb	r0, r0
 765 009a 70BD     		pop	{r4, r5, r6, pc}
 766              	.L80:
 767              		.align	2
 768              	.L79:
 769 009c 00000000 		.word	.LANCHOR0
 770              		.cfi_endproc
 771              	.LFE71:
 772              		.size	locateX, .-locateX
 773              		.section	.text.locateY,"ax",%progbits
 774              		.align	2
 775              		.global	locateY
 776              		.thumb
 777              		.thumb_func
 778              		.type	locateY, %function
 779              	locateY:
 780              	.LFB72:
 380:main.c        ****     uint16 ADCResultY;
 781              		.loc 1 380 0
 782              		.cfi_startproc
 783              		@ args = 0, pretend = 0, frame = 0
 784              		@ frame_needed = 0, uses_anonymous_args = 0
 785 0000 70B5     		push	{r4, r5, r6, lr}
ARM GAS  C:\Users\BETTEF~1\AppData\Local\Temp\ccqlAopu.s 			page 26


 786              		.cfi_def_cfa_offset 16
 787              		.cfi_offset 4, -16
 788              		.cfi_offset 5, -12
 789              		.cfi_offset 6, -8
 790              		.cfi_offset 14, -4
 388:main.c        ****     ADC_SAR_Seq_StartConvert();
 791              		.loc 1 388 0
 792 0002 FFF7FEFF 		bl	ADC_SAR_Seq_Start
 793              	.LVL100:
 389:main.c        ****     ADC_SAR_Seq_IsEndConversion(ADC_SAR_Seq_WAIT_FOR_RESULT);
 794              		.loc 1 389 0
 795 0006 FFF7FEFF 		bl	ADC_SAR_Seq_StartConvert
 796              	.LVL101:
 390:main.c        ****     
 797              		.loc 1 390 0
 798 000a 0020     		movs	r0, #0
 799 000c FFF7FEFF 		bl	ADC_SAR_Seq_IsEndConversion
 800              	.LVL102:
 801              	.L82:
 394:main.c        ****         motorRunLeft(Y);
 802              		.loc 1 394 0 discriminator 3
 803 0010 0120     		movs	r0, #1
 804 0012 FFF7FEFF 		bl	ADC_SAR_Seq_GetResult16
 805              	.LVL103:
 806 0016 84B2     		uxth	r4, r0
 807              	.LVL104:
 395:main.c        ****     } while((ADCResultY < LOW) || (yStepCount < OFF_EDGE));
 808              		.loc 1 395 0 discriminator 3
 809 0018 0120     		movs	r0, #1
 810 001a FFF7FEFF 		bl	motorRunLeft
 811              	.LVL105:
 396:main.c        ****     
 812              		.loc 1 396 0 discriminator 3
 813 001e 472C     		cmp	r4, #71
 814 0020 F6D9     		bls	.L82
 396:main.c        ****     
 815              		.loc 1 396 0 is_stmt 0 discriminator 2
 816 0022 1E4B     		ldr	r3, .L91
 817 0024 1E89     		ldrh	r6, [r3, #8]
 818 0026 092E     		cmp	r6, #9
 819 0028 F2D9     		bls	.L82
 399:main.c        ****         ADC_SAR_Seq_Stop();
 820              		.loc 1 399 0 is_stmt 1
 821 002a 06D9     		bls	.L85
 400:main.c        ****         updateStatus(NO_BOTTLE);
 822              		.loc 1 400 0
 823 002c FFF7FEFF 		bl	ADC_SAR_Seq_Stop
 824              	.LVL106:
 401:main.c        ****         return -1;
 825              		.loc 1 401 0
 826 0030 2220     		movs	r0, #34
 827 0032 FFF7FEFF 		bl	updateStatus
 828              	.LVL107:
 402:main.c        ****     }
 829              		.loc 1 402 0
 830 0036 FF20     		movs	r0, #255
 831 0038 2EE0     		b	.L84
ARM GAS  C:\Users\BETTEF~1\AppData\Local\Temp\ccqlAopu.s 			page 27


 832              	.LVL108:
 833              	.L85:
 410:main.c        ****         motorRunLeft(Y);
 834              		.loc 1 410 0 discriminator 3
 835 003a 0120     		movs	r0, #1
 836 003c FFF7FEFF 		bl	ADC_SAR_Seq_GetResult16
 837              	.LVL109:
 838 0040 85B2     		uxth	r5, r0
 839              	.LVL110:
 411:main.c        ****     } while((ADCResultY > LOW) || (yStepCount < OFF_EDGE));
 840              		.loc 1 411 0 discriminator 3
 841 0042 0120     		movs	r0, #1
 842 0044 FFF7FEFF 		bl	motorRunLeft
 843              	.LVL111:
 412:main.c        ****     
 844              		.loc 1 412 0 discriminator 3
 845 0048 482D     		cmp	r5, #72
 846 004a F6D8     		bhi	.L85
 412:main.c        ****     
 847              		.loc 1 412 0 is_stmt 0 discriminator 2
 848 004c 134B     		ldr	r3, .L91
 849 004e 1C89     		ldrh	r4, [r3, #8]
 850 0050 092C     		cmp	r4, #9
 851 0052 F2D9     		bls	.L85
 415:main.c        ****         ADC_SAR_Seq_Stop();
 852              		.loc 1 415 0 is_stmt 1
 853 0054 06D9     		bls	.L86
 416:main.c        ****         updateStatus(INVALID_TYPE);
 854              		.loc 1 416 0
 855 0056 FFF7FEFF 		bl	ADC_SAR_Seq_Stop
 856              	.LVL112:
 417:main.c        ****         return -1;
 857              		.loc 1 417 0
 858 005a 2120     		movs	r0, #33
 859 005c FFF7FEFF 		bl	updateStatus
 860              	.LVL113:
 418:main.c        ****     }
 861              		.loc 1 418 0
 862 0060 FF20     		movs	r0, #255
 863 0062 19E0     		b	.L84
 864              	.L86:
 865              	.LVL114:
 425:main.c        ****     
 866              		.loc 1 425 0
 867 0064 FFF7FEFF 		bl	ADC_SAR_Seq_Stop
 868              	.LVL115:
 428:main.c        ****     
 869              		.loc 1 428 0
 870 0068 A41B     		subs	r4, r4, r6
 871              	.LVL116:
 872 006a 04EBD474 		add	r4, r4, r4, lsr #31
 873 006e 6410     		asrs	r4, r4, #1
 874              	.LVL117:
 431:main.c        ****         updateStatus(INVALID_TYPE);
 875              		.loc 1 431 0
 876 0070 A3B2     		uxth	r3, r4
 877 0072 5B00     		lsls	r3, r3, #1
ARM GAS  C:\Users\BETTEF~1\AppData\Local\Temp\ccqlAopu.s 			page 28


 878 0074 023B     		subs	r3, r3, #2
 879 0076 032B     		cmp	r3, #3
 880 0078 04D9     		bls	.L87
 432:main.c        ****         return -1;
 881              		.loc 1 432 0
 882 007a 2120     		movs	r0, #33
 883 007c FFF7FEFF 		bl	updateStatus
 884              	.LVL118:
 433:main.c        ****     }
 885              		.loc 1 433 0
 886 0080 FF20     		movs	r0, #255
 887 0082 09E0     		b	.L84
 888              	.L87:
 437:main.c        ****         motorRunRight(Y);
 889              		.loc 1 437 0
 890 0084 E4B2     		uxtb	r4, r4
 891              	.LVL119:
 892 0086 04E0     		b	.L88
 893              	.L89:
 438:main.c        ****     }
 894              		.loc 1 438 0 discriminator 3
 895 0088 0120     		movs	r0, #1
 896 008a FFF7FEFF 		bl	motorRunRight
 897              	.LVL120:
 437:main.c        ****         motorRunRight(Y);
 898              		.loc 1 437 0 discriminator 3
 899 008e 013C     		subs	r4, r4, #1
 900              	.LVL121:
 901 0090 E4B2     		uxtb	r4, r4
 902              	.LVL122:
 903              	.L88:
 437:main.c        ****         motorRunRight(Y);
 904              		.loc 1 437 0 is_stmt 0 discriminator 1
 905 0092 002C     		cmp	r4, #0
 906 0094 F8D1     		bne	.L89
 442:main.c        **** }
 907              		.loc 1 442 0 is_stmt 1
 908 0096 0020     		movs	r0, #0
 909              	.LVL123:
 910              	.L84:
 443:main.c        **** 
 911              		.loc 1 443 0
 912 0098 40B2     		sxtb	r0, r0
 913 009a 70BD     		pop	{r4, r5, r6, pc}
 914              	.L92:
 915              		.align	2
 916              	.L91:
 917 009c 00000000 		.word	.LANCHOR0
 918              		.cfi_endproc
 919              	.LFE72:
 920              		.size	locateY, .-locateY
 921              		.section	.text.openBottle,"ax",%progbits
 922              		.align	2
 923              		.global	openBottle
 924              		.thumb
 925              		.thumb_func
 926              		.type	openBottle, %function
ARM GAS  C:\Users\BETTEF~1\AppData\Local\Temp\ccqlAopu.s 			page 29


 927              	openBottle:
 928              	.LFB73:
 446:main.c        ****     
 929              		.loc 1 446 0
 930              		.cfi_startproc
 931              		@ args = 0, pretend = 0, frame = 0
 932              		@ frame_needed = 0, uses_anonymous_args = 0
 933 0000 08B5     		push	{r3, lr}
 934              		.cfi_def_cfa_offset 8
 935              		.cfi_offset 3, -8
 936              		.cfi_offset 14, -4
 449:main.c        ****     
 937              		.loc 1 449 0
 938 0002 0022     		movs	r2, #0
 939 0004 184B     		ldr	r3, .L97
 940 0006 1A70     		strb	r2, [r3]
 451:main.c        ****     
 941              		.loc 1 451 0
 942 0008 0120     		movs	r0, #1
 943 000a FFF7FEFF 		bl	Enable_1_Write
 944              	.LVL124:
 453:main.c        ****     pwm_isr_1_StartEx(pwm_isr_1);
 945              		.loc 1 453 0
 946 000e FFF7FEFF 		bl	PWM_1_Start
 947              	.LVL125:
 454:main.c        ****     stepindex_1_Write(1); //Start på 1, fordi fullstep.
 948              		.loc 1 454 0
 949 0012 1648     		ldr	r0, .L97+4
 950 0014 FFF7FEFF 		bl	pwm_isr_1_StartEx
 951              	.LVL126:
 455:main.c        ****     
 952              		.loc 1 455 0
 953 0018 0120     		movs	r0, #1
 954 001a FFF7FEFF 		bl	stepindex_1_Write
 955              	.LVL127:
 956              	.L94:
 457:main.c        ****     
 957              		.loc 1 457 0 discriminator 1
 958 001e 144B     		ldr	r3, .L97+8
 959 0020 1B88     		ldrh	r3, [r3]
 960 0022 632B     		cmp	r3, #99
 961 0024 FBD9     		bls	.L94
 459:main.c        ****     Enable_1_Write(0);
 962              		.loc 1 459 0
 963 0026 FFF7FEFF 		bl	PWM_1_Stop
 964              	.LVL128:
 460:main.c        ****     
 965              		.loc 1 460 0
 966 002a 0020     		movs	r0, #0
 967 002c FFF7FEFF 		bl	Enable_1_Write
 968              	.LVL129:
 463:main.c        ****     
 969              		.loc 1 463 0
 970 0030 0022     		movs	r2, #0
 971 0032 104B     		ldr	r3, .L97+12
 972 0034 1A70     		strb	r2, [r3]
 465:main.c        ****     
ARM GAS  C:\Users\BETTEF~1\AppData\Local\Temp\ccqlAopu.s 			page 30


 973              		.loc 1 465 0
 974 0036 0120     		movs	r0, #1
 975 0038 FFF7FEFF 		bl	Enable_2_Write
 976              	.LVL130:
 467:main.c        ****     pwm_isr_2_StartEx(pwm_isr_2);
 977              		.loc 1 467 0
 978 003c FFF7FEFF 		bl	PWM_2_Start
 979              	.LVL131:
 468:main.c        ****     stepindex_2_Write(1); //Start på 1, fordi fullstep.
 980              		.loc 1 468 0
 981 0040 0D48     		ldr	r0, .L97+16
 982 0042 FFF7FEFF 		bl	pwm_isr_2_StartEx
 983              	.LVL132:
 469:main.c        ****     
 984              		.loc 1 469 0
 985 0046 0120     		movs	r0, #1
 986 0048 FFF7FEFF 		bl	stepindex_2_Write
 987              	.LVL133:
 988              	.L95:
 471:main.c        ****     
 989              		.loc 1 471 0 discriminator 1
 990 004c 084B     		ldr	r3, .L97+8
 991 004e 5B88     		ldrh	r3, [r3, #2]
 992 0050 632B     		cmp	r3, #99
 993 0052 FBD9     		bls	.L95
 473:main.c        ****     Enable_2_Write(0);
 994              		.loc 1 473 0
 995 0054 FFF7FEFF 		bl	PWM_2_Stop
 996              	.LVL134:
 474:main.c        ****     
 997              		.loc 1 474 0
 998 0058 0020     		movs	r0, #0
 999 005a FFF7FEFF 		bl	Enable_2_Write
 1000              	.LVL135:
 476:main.c        **** }
 1001              		.loc 1 476 0
 1002 005e 1520     		movs	r0, #21
 1003 0060 FFF7FEFF 		bl	updateStatus
 1004              	.LVL136:
 1005 0064 08BD     		pop	{r3, pc}
 1006              	.L98:
 1007 0066 00BF     		.align	2
 1008              	.L97:
 1009 0068 00000000 		.word	screwDirection
 1010 006c 00000000 		.word	pwm_isr_1
 1011 0070 00000000 		.word	.LANCHOR0
 1012 0074 00000000 		.word	openDirection
 1013 0078 00000000 		.word	pwm_isr_2
 1014              		.cfi_endproc
 1015              	.LFE73:
 1016              		.size	openBottle, .-openBottle
 1017              		.section	.text.reset,"ax",%progbits
 1018              		.align	2
 1019              		.global	reset
 1020              		.thumb
 1021              		.thumb_func
 1022              		.type	reset, %function
ARM GAS  C:\Users\BETTEF~1\AppData\Local\Temp\ccqlAopu.s 			page 31


 1023              	reset:
 1024              	.LFB74:
 480:main.c        ****     
 1025              		.loc 1 480 0
 1026              		.cfi_startproc
 1027              		@ args = 0, pretend = 0, frame = 0
 1028              		@ frame_needed = 0, uses_anonymous_args = 0
 1029 0000 08B5     		push	{r3, lr}
 1030              		.cfi_def_cfa_offset 8
 1031              		.cfi_offset 3, -8
 1032              		.cfi_offset 14, -4
 483:main.c        ****         motorRunRight(Y);
 1033              		.loc 1 483 0
 1034 0002 02E0     		b	.L100
 1035              	.L101:
 484:main.c        ****     }
 1036              		.loc 1 484 0
 1037 0004 0120     		movs	r0, #1
 1038 0006 FFF7FEFF 		bl	motorRunRight
 1039              	.LVL137:
 1040              	.L100:
 483:main.c        ****         motorRunRight(Y);
 1041              		.loc 1 483 0
 1042 000a 0C4B     		ldr	r3, .L106
 1043 000c 5B79     		ldrb	r3, [r3, #5]	@ zero_extendqisi2
 1044 000e 002B     		cmp	r3, #0
 1045 0010 F8D0     		beq	.L101
 1046 0012 02E0     		b	.L102
 1047              	.L103:
 489:main.c        ****     }
 1048              		.loc 1 489 0
 1049 0014 0020     		movs	r0, #0
 1050 0016 FFF7FEFF 		bl	motorRunRight
 1051              	.LVL138:
 1052              	.L102:
 488:main.c        ****         motorRunRight(X);
 1053              		.loc 1 488 0
 1054 001a 084B     		ldr	r3, .L106
 1055 001c 1B79     		ldrb	r3, [r3, #4]	@ zero_extendqisi2
 1056 001e 002B     		cmp	r3, #0
 1057 0020 F8D0     		beq	.L103
 492:main.c        ****     yStop = 0;
 1058              		.loc 1 492 0
 1059 0022 064B     		ldr	r3, .L106
 1060 0024 0022     		movs	r2, #0
 1061 0026 1A71     		strb	r2, [r3, #4]
 493:main.c        ****     
 1062              		.loc 1 493 0
 1063 0028 5A71     		strb	r2, [r3, #5]
 495:main.c        ****         updateStatus(RESET_XY_ON_SUCCESS);
 1064              		.loc 1 495 0
 1065 002a 054B     		ldr	r3, .L106+4
 1066 002c 1B78     		ldrb	r3, [r3]	@ zero_extendqisi2
 1067 002e 152B     		cmp	r3, #21
 1068 0030 02D1     		bne	.L99
 496:main.c        ****     }
 1069              		.loc 1 496 0
ARM GAS  C:\Users\BETTEF~1\AppData\Local\Temp\ccqlAopu.s 			page 32


 1070 0032 3520     		movs	r0, #53
 1071 0034 FFF7FEFF 		bl	updateStatus
 1072              	.LVL139:
 1073              	.L99:
 1074 0038 08BD     		pop	{r3, pc}
 1075              	.L107:
 1076 003a 00BF     		.align	2
 1077              	.L106:
 1078 003c 00000000 		.word	.LANCHOR0
 1079 0040 00000000 		.word	status
 1080              		.cfi_endproc
 1081              	.LFE74:
 1082              		.size	reset, .-reset
 1083              		.section	.text.dispenseCork,"ax",%progbits
 1084              		.align	2
 1085              		.global	dispenseCork
 1086              		.thumb
 1087              		.thumb_func
 1088              		.type	dispenseCork, %function
 1089              	dispenseCork:
 1090              	.LFB75:
 501:main.c        ****     
 1091              		.loc 1 501 0
 1092              		.cfi_startproc
 1093              		@ args = 0, pretend = 0, frame = 0
 1094              		@ frame_needed = 0, uses_anonymous_args = 0
 1095 0000 10B5     		push	{r4, lr}
 1096              		.cfi_def_cfa_offset 8
 1097              		.cfi_offset 4, -8
 1098              		.cfi_offset 14, -4
 504:main.c        ****     
 1099              		.loc 1 504 0
 1100 0002 0124     		movs	r4, #1
 1101 0004 184B     		ldr	r3, .L112
 1102 0006 1C70     		strb	r4, [r3]
 506:main.c        ****     
 1103              		.loc 1 506 0
 1104 0008 2046     		mov	r0, r4
 1105 000a FFF7FEFF 		bl	Enable_1_Write
 1106              	.LVL140:
 508:main.c        ****     pwm_isr_1_StartEx(pwm_isr_1);
 1107              		.loc 1 508 0
 1108 000e FFF7FEFF 		bl	PWM_1_Start
 1109              	.LVL141:
 509:main.c        ****     stepindex_1_Write(1); //Start på 1, fordi fullstep.
 1110              		.loc 1 509 0
 1111 0012 1648     		ldr	r0, .L112+4
 1112 0014 FFF7FEFF 		bl	pwm_isr_1_StartEx
 1113              	.LVL142:
 510:main.c        ****     
 1114              		.loc 1 510 0
 1115 0018 2046     		mov	r0, r4
 1116 001a FFF7FEFF 		bl	stepindex_1_Write
 1117              	.LVL143:
 1118              	.L109:
 512:main.c        ****     
 1119              		.loc 1 512 0 discriminator 1
ARM GAS  C:\Users\BETTEF~1\AppData\Local\Temp\ccqlAopu.s 			page 33


 1120 001e 144B     		ldr	r3, .L112+8
 1121 0020 1B88     		ldrh	r3, [r3]
 1122 0022 002B     		cmp	r3, #0
 1123 0024 FBD1     		bne	.L109
 514:main.c        ****     Enable_1_Write(0);
 1124              		.loc 1 514 0
 1125 0026 FFF7FEFF 		bl	PWM_1_Stop
 1126              	.LVL144:
 515:main.c        ****     
 1127              		.loc 1 515 0
 1128 002a 0020     		movs	r0, #0
 1129 002c FFF7FEFF 		bl	Enable_1_Write
 1130              	.LVL145:
 518:main.c        ****     
 1131              		.loc 1 518 0
 1132 0030 0124     		movs	r4, #1
 1133 0032 104B     		ldr	r3, .L112+12
 1134 0034 1C70     		strb	r4, [r3]
 520:main.c        ****     
 1135              		.loc 1 520 0
 1136 0036 2046     		mov	r0, r4
 1137 0038 FFF7FEFF 		bl	Enable_2_Write
 1138              	.LVL146:
 522:main.c        ****     pwm_isr_2_StartEx(pwm_isr_2);
 1139              		.loc 1 522 0
 1140 003c FFF7FEFF 		bl	PWM_2_Start
 1141              	.LVL147:
 523:main.c        ****     stepindex_2_Write(1); //Start på 1, fordi fullstep.
 1142              		.loc 1 523 0
 1143 0040 0D48     		ldr	r0, .L112+16
 1144 0042 FFF7FEFF 		bl	pwm_isr_2_StartEx
 1145              	.LVL148:
 524:main.c        ****     
 1146              		.loc 1 524 0
 1147 0046 2046     		mov	r0, r4
 1148 0048 FFF7FEFF 		bl	stepindex_2_Write
 1149              	.LVL149:
 1150              	.L110:
 526:main.c        ****     
 1151              		.loc 1 526 0 discriminator 1
 1152 004c 084B     		ldr	r3, .L112+8
 1153 004e 5B88     		ldrh	r3, [r3, #2]
 1154 0050 002B     		cmp	r3, #0
 1155 0052 FBD1     		bne	.L110
 528:main.c        ****     Enable_2_Write(0);
 1156              		.loc 1 528 0
 1157 0054 FFF7FEFF 		bl	PWM_2_Stop
 1158              	.LVL150:
 529:main.c        ****     
 1159              		.loc 1 529 0
 1160 0058 0020     		movs	r0, #0
 1161 005a FFF7FEFF 		bl	Enable_2_Write
 1162              	.LVL151:
 531:main.c        **** }
 1163              		.loc 1 531 0
 1164 005e 1620     		movs	r0, #22
 1165 0060 FFF7FEFF 		bl	updateStatus
ARM GAS  C:\Users\BETTEF~1\AppData\Local\Temp\ccqlAopu.s 			page 34


 1166              	.LVL152:
 1167 0064 10BD     		pop	{r4, pc}
 1168              	.L113:
 1169 0066 00BF     		.align	2
 1170              	.L112:
 1171 0068 00000000 		.word	screwDirection
 1172 006c 00000000 		.word	pwm_isr_1
 1173 0070 00000000 		.word	.LANCHOR0
 1174 0074 00000000 		.word	openDirection
 1175 0078 00000000 		.word	pwm_isr_2
 1176              		.cfi_endproc
 1177              	.LFE75:
 1178              		.size	dispenseCork, .-dispenseCork
 1179              		.section	.text.main,"ax",%progbits
 1180              		.align	2
 1181              		.global	main
 1182              		.thumb
 1183              		.thumb_func
 1184              		.type	main, %function
 1185              	main:
 1186              	.LFB70:
 209:main.c        ****     updateStatus(DEFAULT);
 1187              		.loc 1 209 0
 1188              		.cfi_startproc
 1189              		@ Volatile: function does not return.
 1190              		@ args = 0, pretend = 0, frame = 0
 1191              		@ frame_needed = 0, uses_anonymous_args = 0
 1192 0000 08B5     		push	{r3, lr}
 1193              		.cfi_def_cfa_offset 8
 1194              		.cfi_offset 3, -8
 1195              		.cfi_offset 14, -4
 210:main.c        ****     CyGlobalIntEnable;
 1196              		.loc 1 210 0
 1197 0002 3020     		movs	r0, #48
 1198 0004 FFF7FEFF 		bl	updateStatus
 1199              	.LVL153:
 211:main.c        ****     
 1200              		.loc 1 211 0
 1201              	@ 211 "main.c" 1
 1202 0008 62B6     		CPSIE   i
 1203              	@ 0 "" 2
 213:main.c        **** 	SPIS_1_EnableRxInt();
 1204              		.loc 1 213 0
 1205              		.thumb
 1206 000a FFF7FEFF 		bl	SPIS_1_Start
 1207              	.LVL154:
 214:main.c        ****     isr_1_StartEx(isr_1);
 1208              		.loc 1 214 0
 1209 000e FFF7FEFF 		bl	SPIS_1_EnableRxInt
 1210              	.LVL155:
 215:main.c        **** 	SPIS_1_ClearFIFO();
 1211              		.loc 1 215 0
 1212 0012 3348     		ldr	r0, .L129
 1213 0014 FFF7FEFF 		bl	isr_1_StartEx
 1214              	.LVL156:
 216:main.c        **** 	SPIS_1_ClearTxBuffer();
 1215              		.loc 1 216 0
ARM GAS  C:\Users\BETTEF~1\AppData\Local\Temp\ccqlAopu.s 			page 35


 1216 0018 FFF7FEFF 		bl	SPIS_1_ClearFIFO
 1217              	.LVL157:
 217:main.c        **** 
 1218              		.loc 1 217 0
 1219 001c FFF7FEFF 		bl	SPIS_1_ClearTxBuffer
 1220              	.LVL158:
 1221              	.L127:
 221:main.c        ****             
 1222              		.loc 1 221 0
 1223 0020 304B     		ldr	r3, .L129+4
 1224 0022 9B7A     		ldrb	r3, [r3, #10]	@ zero_extendqisi2
 1225 0024 013B     		subs	r3, r3, #1
 1226 0026 052B     		cmp	r3, #5
 1227 0028 56D8     		bhi	.L115
 1228 002a DFE803F0 		tbb	[pc, r3]
 1229              	.L117:
 1230 002e 03       		.byte	(.L116-.L117)/2
 1231 002f 12       		.byte	(.L118-.L117)/2
 1232 0030 2B       		.byte	(.L119-.L117)/2
 1233 0031 44       		.byte	(.L120-.L117)/2
 1234 0032 4A       		.byte	(.L121-.L117)/2
 1235 0033 50       		.byte	(.L122-.L117)/2
 1236              		.p2align 1
 1237              	.L116:
 225:main.c        ****                 
 1238              		.loc 1 225 0
 1239 0034 3320     		movs	r0, #51
 1240 0036 FFF7FEFF 		bl	updateStatus
 1241              	.LVL159:
 228:main.c        ****                     break;
 1242              		.loc 1 228 0
 1243 003a FFF7FEFF 		bl	locateX
 1244              	.LVL160:
 1245 003e 0028     		cmp	r0, #0
 1246 0040 4AD1     		bne	.L115
 233:main.c        ****                     updateStatus(VALID_XY);
 1247              		.loc 1 233 0
 1248 0042 FFF7FEFF 		bl	locateY
 1249              	.LVL161:
 1250 0046 0028     		cmp	r0, #0
 1251 0048 46D1     		bne	.L115
 234:main.c        ****                 }
 1252              		.loc 1 234 0
 1253 004a 1020     		movs	r0, #16
 1254 004c FFF7FEFF 		bl	updateStatus
 1255              	.LVL162:
 1256 0050 42E0     		b	.L115
 1257              	.L118:
 240:main.c        ****                 
 1258              		.loc 1 240 0
 1259 0052 3320     		movs	r0, #51
 1260 0054 FFF7FEFF 		bl	updateStatus
 1261              	.LVL163:
 243:main.c        ****                 ADC_SAR_Seq_StartConvert();
 1262              		.loc 1 243 0
 1263 0058 FFF7FEFF 		bl	ADC_SAR_Seq_Start
 1264              	.LVL164:
ARM GAS  C:\Users\BETTEF~1\AppData\Local\Temp\ccqlAopu.s 			page 36


 244:main.c        ****                 ADC_SAR_Seq_IsEndConversion(ADC_SAR_Seq_WAIT_FOR_RESULT);
 1265              		.loc 1 244 0
 1266 005c FFF7FEFF 		bl	ADC_SAR_Seq_StartConvert
 1267              	.LVL165:
 245:main.c        ****                 
 1268              		.loc 1 245 0
 1269 0060 0020     		movs	r0, #0
 1270 0062 FFF7FEFF 		bl	ADC_SAR_Seq_IsEndConversion
 1271              	.LVL166:
 248:main.c        ****                     updateStatus(VALID_Z);
 1272              		.loc 1 248 0
 1273 0066 0020     		movs	r0, #0
 1274 0068 FFF7FEFF 		bl	ADC_SAR_Seq_GetResult16
 1275              	.LVL167:
 1276 006c 4828     		cmp	r0, #72
 1277 006e 03DD     		ble	.L123
 249:main.c        ****                 }
 1278              		.loc 1 249 0
 1279 0070 1320     		movs	r0, #19
 1280 0072 FFF7FEFF 		bl	updateStatus
 1281              	.LVL168:
 1282 0076 02E0     		b	.L124
 1283              	.L123:
 254:main.c        ****                 }
 1284              		.loc 1 254 0
 1285 0078 2120     		movs	r0, #33
 1286 007a FFF7FEFF 		bl	updateStatus
 1287              	.LVL169:
 1288              	.L124:
 258:main.c        ****                 break;
 1289              		.loc 1 258 0
 1290 007e FFF7FEFF 		bl	ADC_SAR_Seq_Stop
 1291              	.LVL170:
 259:main.c        ****             
 1292              		.loc 1 259 0
 1293 0082 29E0     		b	.L115
 1294              	.L119:
 263:main.c        ****                 
 1295              		.loc 1 263 0
 1296 0084 3320     		movs	r0, #51
 1297 0086 FFF7FEFF 		bl	updateStatus
 1298              	.LVL171:
 266:main.c        ****                 ADC_SAR_Seq_StartConvert();
 1299              		.loc 1 266 0
 1300 008a FFF7FEFF 		bl	ADC_SAR_Seq_Start
 1301              	.LVL172:
 267:main.c        ****                 ADC_SAR_Seq_IsEndConversion(ADC_SAR_Seq_WAIT_FOR_RESULT);
 1302              		.loc 1 267 0
 1303 008e FFF7FEFF 		bl	ADC_SAR_Seq_StartConvert
 1304              	.LVL173:
 268:main.c        ****                 
 1305              		.loc 1 268 0
 1306 0092 0020     		movs	r0, #0
 1307 0094 FFF7FEFF 		bl	ADC_SAR_Seq_IsEndConversion
 1308              	.LVL174:
 271:main.c        ****                     updateStatus(VALID_TYPE);
 1309              		.loc 1 271 0
ARM GAS  C:\Users\BETTEF~1\AppData\Local\Temp\ccqlAopu.s 			page 37


 1310 0098 0020     		movs	r0, #0
 1311 009a FFF7FEFF 		bl	ADC_SAR_Seq_GetResult16
 1312              	.LVL175:
 1313 009e 4728     		cmp	r0, #71
 1314 00a0 03DC     		bgt	.L125
 272:main.c        ****                 }
 1315              		.loc 1 272 0
 1316 00a2 1420     		movs	r0, #20
 1317 00a4 FFF7FEFF 		bl	updateStatus
 1318              	.LVL176:
 1319 00a8 02E0     		b	.L126
 1320              	.L125:
 277:main.c        ****                 }
 1321              		.loc 1 277 0
 1322 00aa 2120     		movs	r0, #33
 1323 00ac FFF7FEFF 		bl	updateStatus
 1324              	.LVL177:
 1325              	.L126:
 281:main.c        ****                 break;
 1326              		.loc 1 281 0
 1327 00b0 FFF7FEFF 		bl	ADC_SAR_Seq_Stop
 1328              	.LVL178:
 282:main.c        ****             
 1329              		.loc 1 282 0
 1330 00b4 10E0     		b	.L115
 1331              	.L120:
 286:main.c        ****                 openBottle();
 1332              		.loc 1 286 0
 1333 00b6 3320     		movs	r0, #51
 1334 00b8 FFF7FEFF 		bl	updateStatus
 1335              	.LVL179:
 287:main.c        ****                 break;
 1336              		.loc 1 287 0
 1337 00bc FFF7FEFF 		bl	openBottle
 1338              	.LVL180:
 288:main.c        ****             
 1339              		.loc 1 288 0
 1340 00c0 0AE0     		b	.L115
 1341              	.L121:
 292:main.c        ****                 reset();
 1342              		.loc 1 292 0
 1343 00c2 3320     		movs	r0, #51
 1344 00c4 FFF7FEFF 		bl	updateStatus
 1345              	.LVL181:
 293:main.c        ****                 break;
 1346              		.loc 1 293 0
 1347 00c8 FFF7FEFF 		bl	reset
 1348              	.LVL182:
 294:main.c        ****             
 1349              		.loc 1 294 0
 1350 00cc 04E0     		b	.L115
 1351              	.L122:
 298:main.c        ****                 dispenseCork();
 1352              		.loc 1 298 0
 1353 00ce 3320     		movs	r0, #51
 1354 00d0 FFF7FEFF 		bl	updateStatus
 1355              	.LVL183:
ARM GAS  C:\Users\BETTEF~1\AppData\Local\Temp\ccqlAopu.s 			page 38


 299:main.c        ****                 break;
 1356              		.loc 1 299 0
 1357 00d4 FFF7FEFF 		bl	dispenseCork
 1358              	.LVL184:
 1359              	.L115:
 305:main.c        ****     }
 1360              		.loc 1 305 0
 1361 00d8 0022     		movs	r2, #0
 1362 00da 024B     		ldr	r3, .L129+4
 1363 00dc 9A72     		strb	r2, [r3, #10]
 306:main.c        ****     
 1364              		.loc 1 306 0
 1365 00de 9FE7     		b	.L127
 1366              	.L130:
 1367              		.align	2
 1368              	.L129:
 1369 00e0 00000000 		.word	isr_1
 1370 00e4 00000000 		.word	.LANCHOR0
 1371              		.cfi_endproc
 1372              	.LFE70:
 1373              		.size	main, .-main
 1374              		.comm	status,1,1
 1375              		.comm	openDirection,1,1
 1376              		.comm	screwDirection,1,1
 1377              		.global	enabled
 1378              		.global	openCount
 1379              		.global	screwCount
 1380              		.global	yStop
 1381              		.global	xStop
 1382              		.global	yStepCount
 1383              		.global	xStepCount
 1384              		.global	yStep
 1385              		.global	xStep
 1386              		.data
 1387              		.set	.LANCHOR1,. + 0
 1388              		.type	xStep, %object
 1389              		.size	xStep, 1
 1390              	xStep:
 1391 0000 0C       		.byte	12
 1392              		.type	yStep, %object
 1393              		.size	yStep, 1
 1394              	yStep:
 1395 0001 0C       		.byte	12
 1396              		.bss
 1397              		.align	1
 1398              		.set	.LANCHOR0,. + 0
 1399              		.type	screwCount, %object
 1400              		.size	screwCount, 2
 1401              	screwCount:
 1402 0000 0000     		.space	2
 1403              		.type	openCount, %object
 1404              		.size	openCount, 2
 1405              	openCount:
 1406 0002 0000     		.space	2
 1407              		.type	xStop, %object
 1408              		.size	xStop, 1
 1409              	xStop:
ARM GAS  C:\Users\BETTEF~1\AppData\Local\Temp\ccqlAopu.s 			page 39


 1410 0004 00       		.space	1
 1411              		.type	yStop, %object
 1412              		.size	yStop, 1
 1413              	yStop:
 1414 0005 00       		.space	1
 1415              		.type	xStepCount, %object
 1416              		.size	xStepCount, 2
 1417              	xStepCount:
 1418 0006 0000     		.space	2
 1419              		.type	yStepCount, %object
 1420              		.size	yStepCount, 2
 1421              	yStepCount:
 1422 0008 0000     		.space	2
 1423              		.type	enabled, %object
 1424              		.size	enabled, 1
 1425              	enabled:
 1426 000a 00       		.space	1
 1427 000b 00       		.text
 1428              	.Letext0:
 1429              		.file 2 "c:\\program files (x86)\\cypress\\psoc creator\\4.0\\psoc creator\\import\\gnu\\arm\\4.9.
 1430              		.file 3 "c:\\program files (x86)\\cypress\\psoc creator\\4.0\\psoc creator\\import\\gnu\\arm\\4.9.
 1431              		.file 4 "Generated_Source\\PSoC5/cytypes.h"
 1432              		.file 5 "Generated_Source\\PSoC5/core_cm3.h"
 1433              		.file 6 "Generated_Source\\PSoC5/PWM_1.h"
 1434              		.file 7 "Generated_Source\\PSoC5/stepindex_1.h"
 1435              		.file 8 "Generated_Source\\PSoC5/PWM_2.h"
 1436              		.file 9 "Generated_Source\\PSoC5/stepindex_2.h"
 1437              		.file 10 "Generated_Source\\PSoC5/Pin_int_x.h"
 1438              		.file 11 "Generated_Source\\PSoC5/Pin_int_y.h"
 1439              		.file 12 "Generated_Source\\PSoC5/Coils_X.h"
 1440              		.file 13 "Generated_Source\\PSoC5/CyLib.h"
 1441              		.file 14 "Generated_Source\\PSoC5/Coils_Y.h"
 1442              		.file 15 "Generated_Source\\PSoC5/SPIS_1.h"
 1443              		.file 16 "Generated_Source\\PSoC5/ADC_SAR_Seq.h"
 1444              		.file 17 "Generated_Source\\PSoC5/Enable_1.h"
 1445              		.file 18 "Generated_Source\\PSoC5/pwm_isr_1.h"
 1446              		.file 19 "Generated_Source\\PSoC5/Enable_2.h"
 1447              		.file 20 "Generated_Source\\PSoC5/pwm_isr_2.h"
 1448              		.file 21 "Generated_Source\\PSoC5/isr_1.h"