ARM GAS  C:\Users\BETTEF~1\AppData\Local\Temp\ccLikIhb.s 			page 1


   1              		.syntax unified
   2              		.cpu cortex-m3
   3              		.fpu softvfp
   4              		.eabi_attribute 20, 1
   5              		.eabi_attribute 21, 1
   6              		.eabi_attribute 23, 3
   7              		.eabi_attribute 24, 1
   8              		.eabi_attribute 25, 1
   9              		.eabi_attribute 26, 1
  10              		.eabi_attribute 30, 1
  11              		.eabi_attribute 34, 1
  12              		.eabi_attribute 18, 4
  13              		.thumb
  14              		.file	"cyfitter_cfg.c"
  15              		.text
  16              	.Ltext0:
  17              		.cfi_sections	.debug_frame
  18              		.section	.text.CyClockStartupError,"ax",%progbits
  19              		.align	2
  20              		.thumb
  21              		.thumb_func
  22              		.type	CyClockStartupError, %function
  23              	CyClockStartupError:
  24              	.LFB3:
  25              		.file 1 "Generated_Source\\PSoC5\\cyfitter_cfg.c"
   1:Generated_Source\PSoC5/cyfitter_cfg.c **** /*******************************************************************************
   2:Generated_Source\PSoC5/cyfitter_cfg.c **** * File Name: cyfitter_cfg.c
   3:Generated_Source\PSoC5/cyfitter_cfg.c **** * 
   4:Generated_Source\PSoC5/cyfitter_cfg.c **** * PSoC Creator  4.0
   5:Generated_Source\PSoC5/cyfitter_cfg.c **** *
   6:Generated_Source\PSoC5/cyfitter_cfg.c **** * Description:
   7:Generated_Source\PSoC5/cyfitter_cfg.c **** * This file contains device initialization code.
   8:Generated_Source\PSoC5/cyfitter_cfg.c **** * Except for the user defined sections in CyClockStartupError(), this file should not be modified.
   9:Generated_Source\PSoC5/cyfitter_cfg.c **** * This file is automatically generated by PSoC Creator.
  10:Generated_Source\PSoC5/cyfitter_cfg.c **** *
  11:Generated_Source\PSoC5/cyfitter_cfg.c **** ********************************************************************************
  12:Generated_Source\PSoC5/cyfitter_cfg.c **** * Copyright (c) 2007-2016 Cypress Semiconductor.  All rights reserved.
  13:Generated_Source\PSoC5/cyfitter_cfg.c **** * You may use this file only in accordance with the license, terms, conditions, 
  14:Generated_Source\PSoC5/cyfitter_cfg.c **** * disclaimers, and limitations in the end user license agreement accompanying 
  15:Generated_Source\PSoC5/cyfitter_cfg.c **** * the software package with which this file was provided.
  16:Generated_Source\PSoC5/cyfitter_cfg.c **** ********************************************************************************/
  17:Generated_Source\PSoC5/cyfitter_cfg.c **** 
  18:Generated_Source\PSoC5/cyfitter_cfg.c **** #include <string.h>
  19:Generated_Source\PSoC5/cyfitter_cfg.c **** #include "cytypes.h"
  20:Generated_Source\PSoC5/cyfitter_cfg.c **** #include "cydevice_trm.h"
  21:Generated_Source\PSoC5/cyfitter_cfg.c **** #include "cyfitter.h"
  22:Generated_Source\PSoC5/cyfitter_cfg.c **** #include "CyLib.h"
  23:Generated_Source\PSoC5/cyfitter_cfg.c **** #include "cyfitter_cfg.h"
  24:Generated_Source\PSoC5/cyfitter_cfg.c **** #include "cyapicallbacks.h"
  25:Generated_Source\PSoC5/cyfitter_cfg.c **** 
  26:Generated_Source\PSoC5/cyfitter_cfg.c **** #define CY_NEED_CYCLOCKSTARTUPERROR 1
  27:Generated_Source\PSoC5/cyfitter_cfg.c **** 
  28:Generated_Source\PSoC5/cyfitter_cfg.c **** 
  29:Generated_Source\PSoC5/cyfitter_cfg.c **** #if defined(__GNUC__) || defined(__ARMCC_VERSION)
  30:Generated_Source\PSoC5/cyfitter_cfg.c ****     #define CYPACKED 
  31:Generated_Source\PSoC5/cyfitter_cfg.c ****     #define CYPACKED_ATTR __attribute__ ((packed))
  32:Generated_Source\PSoC5/cyfitter_cfg.c ****     #define CYALIGNED __attribute__ ((aligned))
ARM GAS  C:\Users\BETTEF~1\AppData\Local\Temp\ccLikIhb.s 			page 2


  33:Generated_Source\PSoC5/cyfitter_cfg.c ****     #define CY_CFG_UNUSED __attribute__ ((unused))
  34:Generated_Source\PSoC5/cyfitter_cfg.c ****     #ifndef CY_CFG_SECTION
  35:Generated_Source\PSoC5/cyfitter_cfg.c ****         #define CY_CFG_SECTION __attribute__ ((section(".psocinit")))
  36:Generated_Source\PSoC5/cyfitter_cfg.c ****     #endif
  37:Generated_Source\PSoC5/cyfitter_cfg.c ****     
  38:Generated_Source\PSoC5/cyfitter_cfg.c ****     #if defined(__ARMCC_VERSION)
  39:Generated_Source\PSoC5/cyfitter_cfg.c ****         #define CY_CFG_MEMORY_BARRIER() __memory_changed()
  40:Generated_Source\PSoC5/cyfitter_cfg.c ****     #else
  41:Generated_Source\PSoC5/cyfitter_cfg.c ****         #define CY_CFG_MEMORY_BARRIER() __sync_synchronize()
  42:Generated_Source\PSoC5/cyfitter_cfg.c ****     #endif
  43:Generated_Source\PSoC5/cyfitter_cfg.c ****     
  44:Generated_Source\PSoC5/cyfitter_cfg.c **** #elif defined(__ICCARM__)
  45:Generated_Source\PSoC5/cyfitter_cfg.c ****     #include <intrinsics.h>
  46:Generated_Source\PSoC5/cyfitter_cfg.c **** 
  47:Generated_Source\PSoC5/cyfitter_cfg.c ****     #define CYPACKED __packed
  48:Generated_Source\PSoC5/cyfitter_cfg.c ****     #define CYPACKED_ATTR 
  49:Generated_Source\PSoC5/cyfitter_cfg.c ****     #define CYALIGNED _Pragma("data_alignment=4")
  50:Generated_Source\PSoC5/cyfitter_cfg.c ****     #define CY_CFG_UNUSED _Pragma("diag_suppress=Pe177")
  51:Generated_Source\PSoC5/cyfitter_cfg.c ****     #define CY_CFG_SECTION _Pragma("location=\".psocinit\"")
  52:Generated_Source\PSoC5/cyfitter_cfg.c ****     
  53:Generated_Source\PSoC5/cyfitter_cfg.c ****     #define CY_CFG_MEMORY_BARRIER() __DMB()
  54:Generated_Source\PSoC5/cyfitter_cfg.c ****     
  55:Generated_Source\PSoC5/cyfitter_cfg.c **** #else
  56:Generated_Source\PSoC5/cyfitter_cfg.c ****     #error Unsupported toolchain
  57:Generated_Source\PSoC5/cyfitter_cfg.c **** #endif
  58:Generated_Source\PSoC5/cyfitter_cfg.c **** 
  59:Generated_Source\PSoC5/cyfitter_cfg.c **** 
  60:Generated_Source\PSoC5/cyfitter_cfg.c **** CY_CFG_UNUSED
  61:Generated_Source\PSoC5/cyfitter_cfg.c **** static void CYMEMZERO(void *s, size_t n);
  62:Generated_Source\PSoC5/cyfitter_cfg.c **** CY_CFG_UNUSED
  63:Generated_Source\PSoC5/cyfitter_cfg.c **** static void CYMEMZERO(void *s, size_t n)
  64:Generated_Source\PSoC5/cyfitter_cfg.c **** {
  65:Generated_Source\PSoC5/cyfitter_cfg.c **** 	(void)memset(s, 0, n);
  66:Generated_Source\PSoC5/cyfitter_cfg.c **** }
  67:Generated_Source\PSoC5/cyfitter_cfg.c **** CY_CFG_UNUSED
  68:Generated_Source\PSoC5/cyfitter_cfg.c **** static void CYCONFIGCPY(void *dest, const void *src, size_t n);
  69:Generated_Source\PSoC5/cyfitter_cfg.c **** CY_CFG_UNUSED
  70:Generated_Source\PSoC5/cyfitter_cfg.c **** static void CYCONFIGCPY(void *dest, const void *src, size_t n)
  71:Generated_Source\PSoC5/cyfitter_cfg.c **** {
  72:Generated_Source\PSoC5/cyfitter_cfg.c **** 	(void)memcpy(dest, src, n);
  73:Generated_Source\PSoC5/cyfitter_cfg.c **** }
  74:Generated_Source\PSoC5/cyfitter_cfg.c **** CY_CFG_UNUSED
  75:Generated_Source\PSoC5/cyfitter_cfg.c **** static void CYCONFIGCPYCODE(void *dest, const void *src, size_t n);
  76:Generated_Source\PSoC5/cyfitter_cfg.c **** CY_CFG_UNUSED
  77:Generated_Source\PSoC5/cyfitter_cfg.c **** static void CYCONFIGCPYCODE(void *dest, const void *src, size_t n)
  78:Generated_Source\PSoC5/cyfitter_cfg.c **** {
  79:Generated_Source\PSoC5/cyfitter_cfg.c **** 	(void)memcpy(dest, src, n);
  80:Generated_Source\PSoC5/cyfitter_cfg.c **** }
  81:Generated_Source\PSoC5/cyfitter_cfg.c **** 
  82:Generated_Source\PSoC5/cyfitter_cfg.c **** 
  83:Generated_Source\PSoC5/cyfitter_cfg.c **** 
  84:Generated_Source\PSoC5/cyfitter_cfg.c **** 
  85:Generated_Source\PSoC5/cyfitter_cfg.c **** /* Clock startup error codes                                                   */
  86:Generated_Source\PSoC5/cyfitter_cfg.c **** #define CYCLOCKSTART_NO_ERROR    0u
  87:Generated_Source\PSoC5/cyfitter_cfg.c **** #define CYCLOCKSTART_XTAL_ERROR  1u
  88:Generated_Source\PSoC5/cyfitter_cfg.c **** #define CYCLOCKSTART_32KHZ_ERROR 2u
  89:Generated_Source\PSoC5/cyfitter_cfg.c **** #define CYCLOCKSTART_PLL_ERROR   3u
ARM GAS  C:\Users\BETTEF~1\AppData\Local\Temp\ccLikIhb.s 			page 3


  90:Generated_Source\PSoC5/cyfitter_cfg.c **** 
  91:Generated_Source\PSoC5/cyfitter_cfg.c **** 
  92:Generated_Source\PSoC5/cyfitter_cfg.c **** #ifdef CY_NEED_CYCLOCKSTARTUPERROR
  93:Generated_Source\PSoC5/cyfitter_cfg.c **** /*******************************************************************************
  94:Generated_Source\PSoC5/cyfitter_cfg.c **** * Function Name: CyClockStartupError
  95:Generated_Source\PSoC5/cyfitter_cfg.c **** ********************************************************************************
  96:Generated_Source\PSoC5/cyfitter_cfg.c **** * Summary:
  97:Generated_Source\PSoC5/cyfitter_cfg.c **** *  If an error is encountered during clock configuration (crystal startup error,
  98:Generated_Source\PSoC5/cyfitter_cfg.c **** *  PLL lock error, etc.), the system will end up here.  Unless reimplemented by
  99:Generated_Source\PSoC5/cyfitter_cfg.c **** *  the customer, this function will stop in an infinite loop.
 100:Generated_Source\PSoC5/cyfitter_cfg.c **** *
 101:Generated_Source\PSoC5/cyfitter_cfg.c **** * Parameters:
 102:Generated_Source\PSoC5/cyfitter_cfg.c **** *   void
 103:Generated_Source\PSoC5/cyfitter_cfg.c **** *
 104:Generated_Source\PSoC5/cyfitter_cfg.c **** * Return:
 105:Generated_Source\PSoC5/cyfitter_cfg.c **** *   void
 106:Generated_Source\PSoC5/cyfitter_cfg.c **** *
 107:Generated_Source\PSoC5/cyfitter_cfg.c **** *******************************************************************************/
 108:Generated_Source\PSoC5/cyfitter_cfg.c **** CY_CFG_UNUSED
 109:Generated_Source\PSoC5/cyfitter_cfg.c **** static void CyClockStartupError(uint8 errorCode);
 110:Generated_Source\PSoC5/cyfitter_cfg.c **** CY_CFG_UNUSED
 111:Generated_Source\PSoC5/cyfitter_cfg.c **** static void CyClockStartupError(uint8 errorCode)
 112:Generated_Source\PSoC5/cyfitter_cfg.c **** {
  26              		.loc 1 112 0
  27              		.cfi_startproc
  28              		@ Volatile: function does not return.
  29              		@ args = 0, pretend = 0, frame = 0
  30              		@ frame_needed = 0, uses_anonymous_args = 0
  31              		@ link register save eliminated.
  32              	.LVL0:
  33              	.L2:
 113:Generated_Source\PSoC5/cyfitter_cfg.c ****     /* To remove the compiler warning if errorCode not used.                */
 114:Generated_Source\PSoC5/cyfitter_cfg.c ****     errorCode = errorCode;
 115:Generated_Source\PSoC5/cyfitter_cfg.c **** 
 116:Generated_Source\PSoC5/cyfitter_cfg.c ****     /* If we have a clock startup error (bad MHz crystal, PLL lock, etc.),  */
 117:Generated_Source\PSoC5/cyfitter_cfg.c ****     /* we will end up here to allow the customer to implement something to  */
 118:Generated_Source\PSoC5/cyfitter_cfg.c ****     /* deal with the clock condition.                                       */
 119:Generated_Source\PSoC5/cyfitter_cfg.c **** 
 120:Generated_Source\PSoC5/cyfitter_cfg.c **** #ifdef CY_CFG_CLOCK_STARTUP_ERROR_CALLBACK
 121:Generated_Source\PSoC5/cyfitter_cfg.c **** 	CY_CFG_Clock_Startup_ErrorCallback();
 122:Generated_Source\PSoC5/cyfitter_cfg.c **** #else
 123:Generated_Source\PSoC5/cyfitter_cfg.c **** 	/*  If not using CY_CFG_CLOCK_STARTUP_ERROR_CALLBACK, place your clock startup code here. */
 124:Generated_Source\PSoC5/cyfitter_cfg.c ****     /* `#START CyClockStartupError` */
 125:Generated_Source\PSoC5/cyfitter_cfg.c **** 
 126:Generated_Source\PSoC5/cyfitter_cfg.c **** 
 127:Generated_Source\PSoC5/cyfitter_cfg.c **** 
 128:Generated_Source\PSoC5/cyfitter_cfg.c ****     /* `#END` */
 129:Generated_Source\PSoC5/cyfitter_cfg.c **** 
 130:Generated_Source\PSoC5/cyfitter_cfg.c ****     /* If nothing else, stop here since the clocks have not started         */
 131:Generated_Source\PSoC5/cyfitter_cfg.c ****     /* correctly.                                                           */
 132:Generated_Source\PSoC5/cyfitter_cfg.c ****     while(1) {}
  34              		.loc 1 132 0 discriminator 1
  35 0000 FEE7     		b	.L2
  36              		.cfi_endproc
  37              	.LFE3:
  38              		.size	CyClockStartupError, .-CyClockStartupError
  39 0002 00BF     		.section	.text.cfg_write_bytes32,"ax",%progbits
ARM GAS  C:\Users\BETTEF~1\AppData\Local\Temp\ccLikIhb.s 			page 4


  40              		.align	2
  41              		.thumb
  42              		.thumb_func
  43              		.type	cfg_write_bytes32, %function
  44              	cfg_write_bytes32:
  45              	.LFB4:
 133:Generated_Source\PSoC5/cyfitter_cfg.c **** #endif /* CY_CFG_CLOCK_STARTUP_ERROR_CALLBACK */ 
 134:Generated_Source\PSoC5/cyfitter_cfg.c **** }
 135:Generated_Source\PSoC5/cyfitter_cfg.c **** #endif
 136:Generated_Source\PSoC5/cyfitter_cfg.c **** 
 137:Generated_Source\PSoC5/cyfitter_cfg.c **** #define CY_CFG_BASE_ADDR_COUNT 34u
 138:Generated_Source\PSoC5/cyfitter_cfg.c **** CYPACKED typedef struct
 139:Generated_Source\PSoC5/cyfitter_cfg.c **** {
 140:Generated_Source\PSoC5/cyfitter_cfg.c **** 	uint8 offset;
 141:Generated_Source\PSoC5/cyfitter_cfg.c **** 	uint8 value;
 142:Generated_Source\PSoC5/cyfitter_cfg.c **** } CYPACKED_ATTR cy_cfg_addrvalue_t;
 143:Generated_Source\PSoC5/cyfitter_cfg.c **** 
 144:Generated_Source\PSoC5/cyfitter_cfg.c **** #define cy_cfg_addr_table ((const uint32 CYFAR *)0x48000000u)
 145:Generated_Source\PSoC5/cyfitter_cfg.c **** #define cy_cfg_data_table ((const cy_cfg_addrvalue_t CYFAR *)0x48000088u)
 146:Generated_Source\PSoC5/cyfitter_cfg.c **** 
 147:Generated_Source\PSoC5/cyfitter_cfg.c **** /* IOPORT_7 Address: CYDEV_PRTDSI_PRT12_BASE Size (bytes): 6 */
 148:Generated_Source\PSoC5/cyfitter_cfg.c **** #define BS_IOPORT_7_VAL ((const uint8 CYFAR *)0x48000728u)
 149:Generated_Source\PSoC5/cyfitter_cfg.c **** 
 150:Generated_Source\PSoC5/cyfitter_cfg.c **** /* IOPINS0_0 Address: CYREG_PRT0_DM0 Size (bytes): 8 */
 151:Generated_Source\PSoC5/cyfitter_cfg.c **** #define BS_IOPINS0_0_VAL ((const uint8 CYFAR *)0x48000730u)
 152:Generated_Source\PSoC5/cyfitter_cfg.c **** 
 153:Generated_Source\PSoC5/cyfitter_cfg.c **** /* IOPINS0_7 Address: CYREG_PRT12_DR Size (bytes): 10 */
 154:Generated_Source\PSoC5/cyfitter_cfg.c **** #define BS_IOPINS0_7_VAL ((const uint8 CYFAR *)0x48000738u)
 155:Generated_Source\PSoC5/cyfitter_cfg.c **** 
 156:Generated_Source\PSoC5/cyfitter_cfg.c **** /* IOPINS0_1 Address: CYREG_PRT1_DM0 Size (bytes): 8 */
 157:Generated_Source\PSoC5/cyfitter_cfg.c **** #define BS_IOPINS0_1_VAL ((const uint8 CYFAR *)0x48000744u)
 158:Generated_Source\PSoC5/cyfitter_cfg.c **** 
 159:Generated_Source\PSoC5/cyfitter_cfg.c **** /* IOPINS0_2 Address: CYREG_PRT2_DM0 Size (bytes): 8 */
 160:Generated_Source\PSoC5/cyfitter_cfg.c **** #define BS_IOPINS0_2_VAL ((const uint8 CYFAR *)0x4800074Cu)
 161:Generated_Source\PSoC5/cyfitter_cfg.c **** 
 162:Generated_Source\PSoC5/cyfitter_cfg.c **** /* PHUB_CFGMEM1 Address: CYREG_PHUB_CFGMEM1_CFG0 Size (bytes): 4 */
 163:Generated_Source\PSoC5/cyfitter_cfg.c **** #define BS_PHUB_CFGMEM1_VAL ((const uint8 CYFAR *)0x48000754u)
 164:Generated_Source\PSoC5/cyfitter_cfg.c **** 
 165:Generated_Source\PSoC5/cyfitter_cfg.c **** 
 166:Generated_Source\PSoC5/cyfitter_cfg.c **** /*******************************************************************************
 167:Generated_Source\PSoC5/cyfitter_cfg.c **** * Function Name: cfg_write_bytes32
 168:Generated_Source\PSoC5/cyfitter_cfg.c **** ********************************************************************************
 169:Generated_Source\PSoC5/cyfitter_cfg.c **** * Summary:
 170:Generated_Source\PSoC5/cyfitter_cfg.c **** *  This function is used for setting up the chip configuration areas that
 171:Generated_Source\PSoC5/cyfitter_cfg.c **** *  contain relatively sparse data.
 172:Generated_Source\PSoC5/cyfitter_cfg.c **** *
 173:Generated_Source\PSoC5/cyfitter_cfg.c **** * Parameters:
 174:Generated_Source\PSoC5/cyfitter_cfg.c **** *   void
 175:Generated_Source\PSoC5/cyfitter_cfg.c **** *
 176:Generated_Source\PSoC5/cyfitter_cfg.c **** * Return:
 177:Generated_Source\PSoC5/cyfitter_cfg.c **** *   void
 178:Generated_Source\PSoC5/cyfitter_cfg.c **** *
 179:Generated_Source\PSoC5/cyfitter_cfg.c **** *******************************************************************************/
 180:Generated_Source\PSoC5/cyfitter_cfg.c **** static void cfg_write_bytes32(const uint32 addr_table[], const cy_cfg_addrvalue_t data_table[]);
 181:Generated_Source\PSoC5/cyfitter_cfg.c **** static void cfg_write_bytes32(const uint32 addr_table[], const cy_cfg_addrvalue_t data_table[])
 182:Generated_Source\PSoC5/cyfitter_cfg.c **** {
  46              		.loc 1 182 0
ARM GAS  C:\Users\BETTEF~1\AppData\Local\Temp\ccLikIhb.s 			page 5


  47              		.cfi_startproc
  48              		@ args = 0, pretend = 0, frame = 0
  49              		@ frame_needed = 0, uses_anonymous_args = 0
  50              		@ link register save eliminated.
  51              	.LVL1:
  52 0000 F0B4     		push	{r4, r5, r6, r7}
  53              		.cfi_def_cfa_offset 16
  54              		.cfi_offset 4, -16
  55              		.cfi_offset 5, -12
  56              		.cfi_offset 6, -8
  57              		.cfi_offset 7, -4
  58              	.LVL2:
 183:Generated_Source\PSoC5/cyfitter_cfg.c **** 	/* For 32-bit little-endian architectures */
 184:Generated_Source\PSoC5/cyfitter_cfg.c **** 	uint32 i, j = 0u;
  59              		.loc 1 184 0
  60 0002 0022     		movs	r2, #0
 185:Generated_Source\PSoC5/cyfitter_cfg.c **** 	for (i = 0u; i < CY_CFG_BASE_ADDR_COUNT; i++)
  61              		.loc 1 185 0
  62 0004 1746     		mov	r7, r2
  63 0006 11E0     		b	.L4
  64              	.LVL3:
  65              	.L7:
  66              	.LBB2:
 186:Generated_Source\PSoC5/cyfitter_cfg.c **** 	{
 187:Generated_Source\PSoC5/cyfitter_cfg.c **** 		uint32 baseAddr = addr_table[i];
  67              		.loc 1 187 0
  68 0008 50F82760 		ldr	r6, [r0, r7, lsl #2]
  69              	.LVL4:
 188:Generated_Source\PSoC5/cyfitter_cfg.c **** 		uint8 count = (uint8)baseAddr;
  70              		.loc 1 188 0
  71 000c F3B2     		uxtb	r3, r6
  72              	.LVL5:
 189:Generated_Source\PSoC5/cyfitter_cfg.c **** 		baseAddr &= 0xFFFFFF00u;
  73              		.loc 1 189 0
  74 000e 26F0FF06 		bic	r6, r6, #255
  75              	.LVL6:
 190:Generated_Source\PSoC5/cyfitter_cfg.c **** 		while (count != 0u)
  76              		.loc 1 190 0
  77 0012 08E0     		b	.L5
  78              	.L6:
 191:Generated_Source\PSoC5/cyfitter_cfg.c **** 		{
 192:Generated_Source\PSoC5/cyfitter_cfg.c **** 			CY_SET_XTND_REG8((void CYFAR *)(baseAddr + data_table[j].offset), data_table[j].value);
  79              		.loc 1 192 0
  80 0014 01EB4205 		add	r5, r1, r2, lsl #1
  81 0018 11F81240 		ldrb	r4, [r1, r2, lsl #1]	@ zero_extendqisi2
  82 001c 6D78     		ldrb	r5, [r5, #1]	@ zero_extendqisi2
  83 001e A555     		strb	r5, [r4, r6]
 193:Generated_Source\PSoC5/cyfitter_cfg.c **** 			j++;
  84              		.loc 1 193 0
  85 0020 0132     		adds	r2, r2, #1
  86              	.LVL7:
 194:Generated_Source\PSoC5/cyfitter_cfg.c **** 			count--;
  87              		.loc 1 194 0
  88 0022 013B     		subs	r3, r3, #1
  89              	.LVL8:
  90 0024 DBB2     		uxtb	r3, r3
  91              	.LVL9:
ARM GAS  C:\Users\BETTEF~1\AppData\Local\Temp\ccLikIhb.s 			page 6


  92              	.L5:
 190:Generated_Source\PSoC5/cyfitter_cfg.c **** 		{
  93              		.loc 1 190 0
  94 0026 002B     		cmp	r3, #0
  95 0028 F4D1     		bne	.L6
  96              	.LBE2:
 185:Generated_Source\PSoC5/cyfitter_cfg.c **** 	{
  97              		.loc 1 185 0 discriminator 2
  98 002a 0137     		adds	r7, r7, #1
  99              	.LVL10:
 100              	.L4:
 185:Generated_Source\PSoC5/cyfitter_cfg.c **** 	{
 101              		.loc 1 185 0 is_stmt 0 discriminator 1
 102 002c 212F     		cmp	r7, #33
 103 002e EBD9     		bls	.L7
 195:Generated_Source\PSoC5/cyfitter_cfg.c **** 		}
 196:Generated_Source\PSoC5/cyfitter_cfg.c **** 	}
 197:Generated_Source\PSoC5/cyfitter_cfg.c **** }
 104              		.loc 1 197 0 is_stmt 1
 105 0030 F0BC     		pop	{r4, r5, r6, r7}
 106              		.cfi_restore 7
 107              		.cfi_restore 6
 108              		.cfi_restore 5
 109              		.cfi_restore 4
 110              		.cfi_def_cfa_offset 0
 111              	.LVL11:
 112 0032 7047     		bx	lr
 113              		.cfi_endproc
 114              	.LFE4:
 115              		.size	cfg_write_bytes32, .-cfg_write_bytes32
 116              		.section	.text.CYMEMZERO,"ax",%progbits
 117              		.align	2
 118              		.thumb
 119              		.thumb_func
 120              		.type	CYMEMZERO, %function
 121              	CYMEMZERO:
 122              	.LFB0:
  64:Generated_Source\PSoC5/cyfitter_cfg.c **** 	(void)memset(s, 0, n);
 123              		.loc 1 64 0
 124              		.cfi_startproc
 125              		@ args = 0, pretend = 0, frame = 0
 126              		@ frame_needed = 0, uses_anonymous_args = 0
 127              	.LVL12:
 128 0000 08B5     		push	{r3, lr}
 129              		.cfi_def_cfa_offset 8
 130              		.cfi_offset 3, -8
 131              		.cfi_offset 14, -4
 132 0002 0A46     		mov	r2, r1
  65:Generated_Source\PSoC5/cyfitter_cfg.c **** }
 133              		.loc 1 65 0
 134 0004 0021     		movs	r1, #0
 135              	.LVL13:
 136 0006 FFF7FEFF 		bl	memset
 137              	.LVL14:
 138 000a 08BD     		pop	{r3, pc}
 139              		.cfi_endproc
 140              	.LFE0:
ARM GAS  C:\Users\BETTEF~1\AppData\Local\Temp\ccLikIhb.s 			page 7


 141              		.size	CYMEMZERO, .-CYMEMZERO
 142              		.section	.text.ClockSetup,"ax",%progbits
 143              		.align	2
 144              		.thumb
 145              		.thumb_func
 146              		.type	ClockSetup, %function
 147              	ClockSetup:
 148              	.LFB5:
 198:Generated_Source\PSoC5/cyfitter_cfg.c **** 
 199:Generated_Source\PSoC5/cyfitter_cfg.c **** /*******************************************************************************
 200:Generated_Source\PSoC5/cyfitter_cfg.c **** * Function Name: ClockSetup
 201:Generated_Source\PSoC5/cyfitter_cfg.c **** ********************************************************************************
 202:Generated_Source\PSoC5/cyfitter_cfg.c **** *
 203:Generated_Source\PSoC5/cyfitter_cfg.c **** * Summary:
 204:Generated_Source\PSoC5/cyfitter_cfg.c **** *  Performs the initialization of all of the clocks in the device based on the
 205:Generated_Source\PSoC5/cyfitter_cfg.c **** *  settings in the Clock tab of the DWR.  This includes enabling the requested
 206:Generated_Source\PSoC5/cyfitter_cfg.c **** *  clocks and setting the necessary dividers to produce the desired frequency. 
 207:Generated_Source\PSoC5/cyfitter_cfg.c **** *
 208:Generated_Source\PSoC5/cyfitter_cfg.c **** * Parameters:
 209:Generated_Source\PSoC5/cyfitter_cfg.c **** *  void
 210:Generated_Source\PSoC5/cyfitter_cfg.c **** *
 211:Generated_Source\PSoC5/cyfitter_cfg.c **** * Return:
 212:Generated_Source\PSoC5/cyfitter_cfg.c **** *  void
 213:Generated_Source\PSoC5/cyfitter_cfg.c **** *
 214:Generated_Source\PSoC5/cyfitter_cfg.c **** *******************************************************************************/
 215:Generated_Source\PSoC5/cyfitter_cfg.c **** static void ClockSetup(void);
 216:Generated_Source\PSoC5/cyfitter_cfg.c **** static void ClockSetup(void)
 217:Generated_Source\PSoC5/cyfitter_cfg.c **** {
 149              		.loc 1 217 0
 150              		.cfi_startproc
 151              		@ args = 0, pretend = 0, frame = 0
 152              		@ frame_needed = 0, uses_anonymous_args = 0
 153 0000 38B5     		push	{r3, r4, r5, lr}
 154              		.cfi_def_cfa_offset 16
 155              		.cfi_offset 3, -16
 156              		.cfi_offset 4, -12
 157              		.cfi_offset 5, -8
 158              		.cfi_offset 14, -4
 218:Generated_Source\PSoC5/cyfitter_cfg.c **** 	uint32 timeout;
 219:Generated_Source\PSoC5/cyfitter_cfg.c **** 	uint8 pllLock;
 220:Generated_Source\PSoC5/cyfitter_cfg.c **** 
 221:Generated_Source\PSoC5/cyfitter_cfg.c **** 
 222:Generated_Source\PSoC5/cyfitter_cfg.c **** 	/* Configure Digital Clocks based on settings from Clock DWR */
 223:Generated_Source\PSoC5/cyfitter_cfg.c **** 	CY_SET_XTND_REG16((void CYFAR *)(CYREG_CLKDIST_DCFG0_CFG0), 0x0013u);
 159              		.loc 1 223 0
 160 0002 1322     		movs	r2, #19
 161 0004 254B     		ldr	r3, .L17
 162 0006 1A80     		strh	r2, [r3]	@ movhi
 224:Generated_Source\PSoC5/cyfitter_cfg.c **** 	CY_SET_XTND_REG8((void CYFAR *)(CYREG_CLKDIST_DCFG0_CFG0 + 0x2u), 0x18u);
 163              		.loc 1 224 0
 164 0008 1823     		movs	r3, #24
 165 000a 254A     		ldr	r2, .L17+4
 166 000c 1370     		strb	r3, [r2]
 225:Generated_Source\PSoC5/cyfitter_cfg.c **** 	CY_SET_XTND_REG16((void CYFAR *)(CYREG_CLKDIST_DCFG1_CFG0), 0x0019u);
 167              		.loc 1 225 0
 168 000e 1925     		movs	r5, #25
 169 0010 0232     		adds	r2, r2, #2
ARM GAS  C:\Users\BETTEF~1\AppData\Local\Temp\ccLikIhb.s 			page 8


 170 0012 1580     		strh	r5, [r2]	@ movhi
 226:Generated_Source\PSoC5/cyfitter_cfg.c **** 	CY_SET_XTND_REG8((void CYFAR *)(CYREG_CLKDIST_DCFG1_CFG0 + 0x2u), 0x18u);
 171              		.loc 1 226 0
 172 0014 0232     		adds	r2, r2, #2
 173 0016 1370     		strb	r3, [r2]
 227:Generated_Source\PSoC5/cyfitter_cfg.c **** 
 228:Generated_Source\PSoC5/cyfitter_cfg.c **** 	/* Configure ILO based on settings from Clock DWR */
 229:Generated_Source\PSoC5/cyfitter_cfg.c **** 	CY_SET_XTND_REG8((void CYFAR *)(CYREG_SLOWCLK_ILO_CR0), 0x02u);
 174              		.loc 1 229 0
 175 0018 0222     		movs	r2, #2
 176 001a 224B     		ldr	r3, .L17+8
 177 001c 1A70     		strb	r2, [r3]
 230:Generated_Source\PSoC5/cyfitter_cfg.c **** 	CY_SET_XTND_REG8((void CYFAR *)(CYREG_CLKDIST_CR), 0x08u);
 178              		.loc 1 230 0
 179 001e 0822     		movs	r2, #8
 180 0020 4FF04023 		mov	r3, #1073758208
 181 0024 1A70     		strb	r2, [r3]
 231:Generated_Source\PSoC5/cyfitter_cfg.c **** 
 232:Generated_Source\PSoC5/cyfitter_cfg.c **** 	/* Configure IMO based on settings from Clock DWR */
 233:Generated_Source\PSoC5/cyfitter_cfg.c **** 	CY_SET_XTND_REG8((void CYFAR *)(CYREG_FASTCLK_IMO_CR), 0x03u);
 182              		.loc 1 233 0
 183 0026 0321     		movs	r1, #3
 184 0028 03F50073 		add	r3, r3, #512
 185 002c 1970     		strb	r1, [r3]
 234:Generated_Source\PSoC5/cyfitter_cfg.c **** 	CY_SET_XTND_REG8((void CYFAR *)(CYREG_IMO_TR1), (CY_GET_XTND_REG8((void CYFAR *)CYREG_FLSHID_CUST_
 186              		.loc 1 234 0
 187 002e 1E4B     		ldr	r3, .L17+12
 188 0030 1B78     		ldrb	r3, [r3]	@ zero_extendqisi2
 189 0032 DBB2     		uxtb	r3, r3
 190 0034 1D49     		ldr	r1, .L17+16
 191 0036 0B70     		strb	r3, [r1]
 235:Generated_Source\PSoC5/cyfitter_cfg.c **** 
 236:Generated_Source\PSoC5/cyfitter_cfg.c **** 	/* Configure PLL based on settings from Clock DWR */
 237:Generated_Source\PSoC5/cyfitter_cfg.c **** 	CY_SET_XTND_REG16((void CYFAR *)(CYREG_FASTCLK_PLL_P), 0x0008u);
 192              		.loc 1 237 0
 193 0038 1D4B     		ldr	r3, .L17+20
 194 003a 1A80     		strh	r2, [r3]	@ movhi
 238:Generated_Source\PSoC5/cyfitter_cfg.c **** 	CY_SET_XTND_REG16((void CYFAR *)(CYREG_FASTCLK_PLL_CFG0), 0x1251u);
 195              		.loc 1 238 0
 196 003c 41F25122 		movw	r2, #4689
 197 0040 023B     		subs	r3, r3, #2
 198 0042 1A80     		strh	r2, [r3]	@ movhi
 199              	.LVL15:
 239:Generated_Source\PSoC5/cyfitter_cfg.c **** 	/* Wait up to 250us for the PLL to lock */
 240:Generated_Source\PSoC5/cyfitter_cfg.c **** 	pllLock = 0u;
 200              		.loc 1 240 0
 201 0044 0024     		movs	r4, #0
 241:Generated_Source\PSoC5/cyfitter_cfg.c **** 	for (timeout = 250u / 10u; (timeout > 0u) && (pllLock != 0x03u); timeout--)
 202              		.loc 1 241 0
 203 0046 0CE0     		b	.L12
 204              	.LVL16:
 205              	.L14:
 242:Generated_Source\PSoC5/cyfitter_cfg.c **** 	{ 
 243:Generated_Source\PSoC5/cyfitter_cfg.c **** 		pllLock = 0x03u & ((uint8)((uint8)pllLock << 1) | ((CY_GET_XTND_REG8((void CYFAR *)CYREG_FASTCLK_
 206              		.loc 1 243 0 discriminator 4
 207 0048 1A4B     		ldr	r3, .L17+24
 208 004a 1B78     		ldrb	r3, [r3]	@ zero_extendqisi2
ARM GAS  C:\Users\BETTEF~1\AppData\Local\Temp\ccLikIhb.s 			page 9


 209 004c 03F00103 		and	r3, r3, #1
 210 0050 43EA4404 		orr	r4, r3, r4, lsl #1
 211              	.LVL17:
 212 0054 04F00304 		and	r4, r4, #3
 213              	.LVL18:
 244:Generated_Source\PSoC5/cyfitter_cfg.c **** 		CyDelayCycles(10u * 48u); /* Delay 10us based on 48MHz clock */
 214              		.loc 1 244 0 discriminator 4
 215 0058 4FF4F070 		mov	r0, #480
 216 005c FFF7FEFF 		bl	CyDelayCycles
 217              	.LVL19:
 241:Generated_Source\PSoC5/cyfitter_cfg.c **** 	for (timeout = 250u / 10u; (timeout > 0u) && (pllLock != 0x03u); timeout--)
 218              		.loc 1 241 0 discriminator 4
 219 0060 013D     		subs	r5, r5, #1
 220              	.LVL20:
 221              	.L12:
 241:Generated_Source\PSoC5/cyfitter_cfg.c **** 	for (timeout = 250u / 10u; (timeout > 0u) && (pllLock != 0x03u); timeout--)
 222              		.loc 1 241 0 is_stmt 0 discriminator 1
 223 0062 0DB1     		cbz	r5, .L13
 241:Generated_Source\PSoC5/cyfitter_cfg.c **** 	for (timeout = 250u / 10u; (timeout > 0u) && (pllLock != 0x03u); timeout--)
 224              		.loc 1 241 0 discriminator 3
 225 0064 032C     		cmp	r4, #3
 226 0066 EFD1     		bne	.L14
 227              	.L13:
 245:Generated_Source\PSoC5/cyfitter_cfg.c **** 	}
 246:Generated_Source\PSoC5/cyfitter_cfg.c **** 	/* If we ran out of time the PLL didn't lock so go to the error function */
 247:Generated_Source\PSoC5/cyfitter_cfg.c **** 	if (timeout == 0u)
 228              		.loc 1 247 0 is_stmt 1
 229 0068 15B9     		cbnz	r5, .L15
 248:Generated_Source\PSoC5/cyfitter_cfg.c **** 	{
 249:Generated_Source\PSoC5/cyfitter_cfg.c **** 		CyClockStartupError(CYCLOCKSTART_PLL_ERROR);
 230              		.loc 1 249 0
 231 006a 0320     		movs	r0, #3
 232 006c FFF7FEFF 		bl	CyClockStartupError
 233              	.LVL21:
 234              	.L15:
 250:Generated_Source\PSoC5/cyfitter_cfg.c **** 	}
 251:Generated_Source\PSoC5/cyfitter_cfg.c **** 
 252:Generated_Source\PSoC5/cyfitter_cfg.c **** 	/* Configure Bus/Master Clock based on settings from Clock DWR */
 253:Generated_Source\PSoC5/cyfitter_cfg.c **** 	CY_SET_XTND_REG16((void CYFAR *)(CYREG_CLKDIST_MSTR0), 0x0100u);
 235              		.loc 1 253 0
 236 0070 114B     		ldr	r3, .L17+28
 237 0072 4FF48072 		mov	r2, #256
 238 0076 1A80     		strh	r2, [r3]	@ movhi
 254:Generated_Source\PSoC5/cyfitter_cfg.c **** 	CY_SET_XTND_REG8((void CYFAR *)(CYREG_CLKDIST_MSTR0), 0x07u);
 239              		.loc 1 254 0
 240 0078 0722     		movs	r2, #7
 241 007a 1A70     		strb	r2, [r3]
 255:Generated_Source\PSoC5/cyfitter_cfg.c **** 	CY_SET_XTND_REG8((void CYFAR *)(CYREG_CLKDIST_BCFG0), 0x00u);
 242              		.loc 1 255 0
 243 007c 0022     		movs	r2, #0
 244 007e 0F49     		ldr	r1, .L17+32
 245 0080 0A70     		strb	r2, [r1]
 256:Generated_Source\PSoC5/cyfitter_cfg.c **** 	CY_SET_XTND_REG8((void CYFAR *)(CYREG_CLKDIST_BCFG2), 0x48u);
 246              		.loc 1 256 0
 247 0082 4820     		movs	r0, #72
 248 0084 0231     		adds	r1, r1, #2
 249 0086 0870     		strb	r0, [r1]
ARM GAS  C:\Users\BETTEF~1\AppData\Local\Temp\ccLikIhb.s 			page 10


 257:Generated_Source\PSoC5/cyfitter_cfg.c **** 	CY_SET_XTND_REG8((void CYFAR *)(CYREG_CLKDIST_MSTR0), 0x00u);
 250              		.loc 1 257 0
 251 0088 1A70     		strb	r2, [r3]
 258:Generated_Source\PSoC5/cyfitter_cfg.c **** 	CY_SET_XTND_REG8((void CYFAR *)(CYREG_CLKDIST_LD), 0x02u);
 252              		.loc 1 258 0
 253 008a 0222     		movs	r2, #2
 254 008c 033B     		subs	r3, r3, #3
 255 008e 1A70     		strb	r2, [r3]
 259:Generated_Source\PSoC5/cyfitter_cfg.c **** 
 260:Generated_Source\PSoC5/cyfitter_cfg.c **** 	CY_SET_XTND_REG8((void CYFAR *)(CYREG_PM_ACT_CFG2), ((CY_GET_XTND_REG8((void CYFAR *)CYREG_PM_ACT_
 256              		.loc 1 260 0
 257 0090 0B4A     		ldr	r2, .L17+36
 258 0092 1378     		ldrb	r3, [r2]	@ zero_extendqisi2
 259 0094 43F00303 		orr	r3, r3, #3
 260 0098 1370     		strb	r3, [r2]
 261 009a 38BD     		pop	{r3, r4, r5, pc}
 262              	.LVL22:
 263              	.L18:
 264              		.align	2
 265              	.L17:
 266 009c 80400040 		.word	1073758336
 267 00a0 82400040 		.word	1073758338
 268 00a4 00430040 		.word	1073758976
 269 00a8 08010049 		.word	1224737032
 270 00ac A1460040 		.word	1073759905
 271 00b0 22420040 		.word	1073758754
 272 00b4 25420040 		.word	1073758757
 273 00b8 04400040 		.word	1073758212
 274 00bc 06400040 		.word	1073758214
 275 00c0 A2430040 		.word	1073759138
 276              		.cfi_endproc
 277              	.LFE5:
 278              		.size	ClockSetup, .-ClockSetup
 279              		.section	.text.AnalogSetDefault,"ax",%progbits
 280              		.align	2
 281              		.thumb
 282              		.thumb_func
 283              		.type	AnalogSetDefault, %function
 284              	AnalogSetDefault:
 285              	.LFB6:
 261:Generated_Source\PSoC5/cyfitter_cfg.c **** }
 262:Generated_Source\PSoC5/cyfitter_cfg.c **** 
 263:Generated_Source\PSoC5/cyfitter_cfg.c **** 
 264:Generated_Source\PSoC5/cyfitter_cfg.c **** /* Analog API Functions */
 265:Generated_Source\PSoC5/cyfitter_cfg.c **** 
 266:Generated_Source\PSoC5/cyfitter_cfg.c **** 
 267:Generated_Source\PSoC5/cyfitter_cfg.c **** /*******************************************************************************
 268:Generated_Source\PSoC5/cyfitter_cfg.c **** * Function Name: AnalogSetDefault
 269:Generated_Source\PSoC5/cyfitter_cfg.c **** ********************************************************************************
 270:Generated_Source\PSoC5/cyfitter_cfg.c **** *
 271:Generated_Source\PSoC5/cyfitter_cfg.c **** * Summary:
 272:Generated_Source\PSoC5/cyfitter_cfg.c **** *  Sets up the analog portions of the chip to default values based on chip
 273:Generated_Source\PSoC5/cyfitter_cfg.c **** *  configuration options from the project.
 274:Generated_Source\PSoC5/cyfitter_cfg.c **** *
 275:Generated_Source\PSoC5/cyfitter_cfg.c **** * Parameters:
 276:Generated_Source\PSoC5/cyfitter_cfg.c **** *  void
 277:Generated_Source\PSoC5/cyfitter_cfg.c **** *
ARM GAS  C:\Users\BETTEF~1\AppData\Local\Temp\ccLikIhb.s 			page 11


 278:Generated_Source\PSoC5/cyfitter_cfg.c **** * Return:
 279:Generated_Source\PSoC5/cyfitter_cfg.c **** *  void
 280:Generated_Source\PSoC5/cyfitter_cfg.c **** *
 281:Generated_Source\PSoC5/cyfitter_cfg.c **** *******************************************************************************/
 282:Generated_Source\PSoC5/cyfitter_cfg.c **** static void AnalogSetDefault(void);
 283:Generated_Source\PSoC5/cyfitter_cfg.c **** static void AnalogSetDefault(void)
 284:Generated_Source\PSoC5/cyfitter_cfg.c **** {
 286              		.loc 1 284 0
 287              		.cfi_startproc
 288              		@ args = 0, pretend = 0, frame = 0
 289              		@ frame_needed = 0, uses_anonymous_args = 0
 290 0000 F8B5     		push	{r3, r4, r5, r6, r7, lr}
 291              		.cfi_def_cfa_offset 24
 292              		.cfi_offset 3, -24
 293              		.cfi_offset 4, -20
 294              		.cfi_offset 5, -16
 295              		.cfi_offset 6, -12
 296              		.cfi_offset 7, -8
 297              		.cfi_offset 14, -4
 285:Generated_Source\PSoC5/cyfitter_cfg.c **** 	uint8 bg_xover_inl_trim = CY_GET_XTND_REG8((void CYFAR *)(CYREG_FLSHID_MFG_CFG_BG_XOVER_INL_TRIM +
 298              		.loc 1 285 0
 299 0002 164B     		ldr	r3, .L21
 300 0004 1B78     		ldrb	r3, [r3]	@ zero_extendqisi2
 301 0006 DBB2     		uxtb	r3, r3
 302              	.LVL23:
 286:Generated_Source\PSoC5/cyfitter_cfg.c **** 	uint8 cr4 = CY_GET_XTND_REG8((void CYFAR *)(CYREG_RESET_CR4));
 303              		.loc 1 286 0
 304 0008 154E     		ldr	r6, .L21+4
 305 000a 3478     		ldrb	r4, [r6]	@ zero_extendqisi2
 306 000c E4B2     		uxtb	r4, r4
 307              	.LVL24:
 287:Generated_Source\PSoC5/cyfitter_cfg.c **** 	uint8 cr5 = CY_GET_XTND_REG8((void CYFAR *)(CYREG_RESET_CR5));
 308              		.loc 1 287 0
 309 000e 154F     		ldr	r7, .L21+8
 310 0010 3D78     		ldrb	r5, [r7]	@ zero_extendqisi2
 311 0012 EDB2     		uxtb	r5, r5
 312              	.LVL25:
 288:Generated_Source\PSoC5/cyfitter_cfg.c **** 	CY_SET_XTND_REG8((void CYFAR *)(CYREG_BG_DFT0), (bg_xover_inl_trim & 0x07u));
 313              		.loc 1 288 0
 314 0014 03F00701 		and	r1, r3, #7
 315 0018 134A     		ldr	r2, .L21+12
 316 001a 1170     		strb	r1, [r2]
 289:Generated_Source\PSoC5/cyfitter_cfg.c **** 	CY_SET_XTND_REG8((void CYFAR *)(CYREG_BG_DFT1), ((bg_xover_inl_trim >> 4) & 0x0Fu));
 317              		.loc 1 289 0
 318 001c 1B09     		lsrs	r3, r3, #4
 319              	.LVL26:
 320 001e 0132     		adds	r2, r2, #1
 321 0020 1370     		strb	r3, [r2]
 290:Generated_Source\PSoC5/cyfitter_cfg.c **** 	/* Disable PRES while setting up SAR voltage reference */
 291:Generated_Source\PSoC5/cyfitter_cfg.c **** 	CY_SET_XTND_REG8((void CYFAR *)(CYREG_RESET_CR4), (cr4 | 0x03u));
 322              		.loc 1 291 0
 323 0022 44F00303 		orr	r3, r4, #3
 324 0026 3370     		strb	r3, [r6]
 292:Generated_Source\PSoC5/cyfitter_cfg.c **** 	CY_SET_XTND_REG8((void CYFAR *)(CYREG_RESET_CR5), (cr5 | 0x03u));
 325              		.loc 1 292 0
 326 0028 45F00303 		orr	r3, r5, #3
 327 002c 3B70     		strb	r3, [r7]
ARM GAS  C:\Users\BETTEF~1\AppData\Local\Temp\ccLikIhb.s 			page 12


 293:Generated_Source\PSoC5/cyfitter_cfg.c **** 	CY_SET_XTND_REG8((void CYFAR *)CYREG_PRT0_AG, 0x80u);
 328              		.loc 1 293 0
 329 002e 8023     		movs	r3, #128
 330 0030 A2F26272 		subw	r2, r2, #1890
 331 0034 1370     		strb	r3, [r2]
 294:Generated_Source\PSoC5/cyfitter_cfg.c **** 	CY_SET_XTND_REG8((void CYFAR *)CYREG_SAR0_CSR1, 0x40u);
 332              		.loc 1 294 0
 333 0036 4022     		movs	r2, #64
 334 0038 0C49     		ldr	r1, .L21+16
 335 003a 0A70     		strb	r2, [r1]
 295:Generated_Source\PSoC5/cyfitter_cfg.c **** 	CY_SET_XTND_REG8((void CYFAR *)CYREG_SAR0_CSR3, 0x40u);
 336              		.loc 1 295 0
 337 003c 0231     		adds	r1, r1, #2
 338 003e 0A70     		strb	r2, [r1]
 296:Generated_Source\PSoC5/cyfitter_cfg.c **** 	CY_SET_XTND_REG8((void CYFAR *)CYREG_SAR0_SW0, 0x80u);
 339              		.loc 1 296 0
 340 0040 0B4A     		ldr	r2, .L21+20
 341 0042 1370     		strb	r3, [r2]
 297:Generated_Source\PSoC5/cyfitter_cfg.c **** 	CY_SET_XTND_REG8((void CYFAR *)CYREG_SAR0_SW3, 0x20u);
 342              		.loc 1 297 0
 343 0044 2022     		movs	r2, #32
 344 0046 0B4B     		ldr	r3, .L21+24
 345 0048 1A70     		strb	r2, [r3]
 298:Generated_Source\PSoC5/cyfitter_cfg.c **** 	CyDelayUs(10u); /* Allow vref to settle before re-enabling PRES */
 346              		.loc 1 298 0
 347 004a 0A20     		movs	r0, #10
 348 004c FFF7FEFF 		bl	CyDelayUs
 349              	.LVL27:
 299:Generated_Source\PSoC5/cyfitter_cfg.c **** 	CY_SET_XTND_REG8((void CYFAR *)(CYREG_RESET_CR5), (cr5));
 350              		.loc 1 299 0
 351 0050 3D70     		strb	r5, [r7]
 300:Generated_Source\PSoC5/cyfitter_cfg.c **** 	CY_SET_XTND_REG8((void CYFAR *)(CYREG_RESET_CR4), (cr4));
 352              		.loc 1 300 0
 353 0052 3470     		strb	r4, [r6]
 301:Generated_Source\PSoC5/cyfitter_cfg.c **** 	CY_SET_XTND_REG8((void CYFAR *)CYREG_PUMP_CR0, 0x44u);
 354              		.loc 1 301 0
 355 0054 4422     		movs	r2, #68
 356 0056 084B     		ldr	r3, .L21+28
 357 0058 1A70     		strb	r2, [r3]
 358 005a F8BD     		pop	{r3, r4, r5, r6, r7, pc}
 359              	.LVL28:
 360              	.L22:
 361              		.align	2
 362              	.L21:
 363 005c CF010049 		.word	1224737231
 364 0060 F8460040 		.word	1073759992
 365 0064 F9460040 		.word	1073759993
 366 0068 6E580040 		.word	1073764462
 367 006c 01590040 		.word	1073764609
 368 0070 205B0040 		.word	1073765152
 369 0074 235B0040 		.word	1073765155
 370 0078 76580040 		.word	1073764470
 371              		.cfi_endproc
 372              	.LFE6:
 373              		.size	AnalogSetDefault, .-AnalogSetDefault
 374              		.section	.text.CYCONFIGCPY,"ax",%progbits
 375              		.align	2
ARM GAS  C:\Users\BETTEF~1\AppData\Local\Temp\ccLikIhb.s 			page 13


 376              		.thumb
 377              		.thumb_func
 378              		.type	CYCONFIGCPY, %function
 379              	CYCONFIGCPY:
 380              	.LFB1:
  71:Generated_Source\PSoC5/cyfitter_cfg.c **** 	(void)memcpy(dest, src, n);
 381              		.loc 1 71 0
 382              		.cfi_startproc
 383              		@ args = 0, pretend = 0, frame = 0
 384              		@ frame_needed = 0, uses_anonymous_args = 0
 385              	.LVL29:
 386 0000 08B5     		push	{r3, lr}
 387              		.cfi_def_cfa_offset 8
 388              		.cfi_offset 3, -8
 389              		.cfi_offset 14, -4
  72:Generated_Source\PSoC5/cyfitter_cfg.c **** }
 390              		.loc 1 72 0
 391 0002 FFF7FEFF 		bl	memcpy
 392              	.LVL30:
 393 0006 08BD     		pop	{r3, pc}
 394              		.cfi_endproc
 395              	.LFE1:
 396              		.size	CYCONFIGCPY, .-CYCONFIGCPY
 397              		.section	.text.SetAnalogRoutingPumps,"ax",%progbits
 398              		.align	2
 399              		.global	SetAnalogRoutingPumps
 400              		.thumb
 401              		.thumb_func
 402              		.type	SetAnalogRoutingPumps, %function
 403              	SetAnalogRoutingPumps:
 404              	.LFB7:
 302:Generated_Source\PSoC5/cyfitter_cfg.c **** }
 303:Generated_Source\PSoC5/cyfitter_cfg.c **** 
 304:Generated_Source\PSoC5/cyfitter_cfg.c **** 
 305:Generated_Source\PSoC5/cyfitter_cfg.c **** /*******************************************************************************
 306:Generated_Source\PSoC5/cyfitter_cfg.c **** * Function Name: SetAnalogRoutingPumps
 307:Generated_Source\PSoC5/cyfitter_cfg.c **** ********************************************************************************
 308:Generated_Source\PSoC5/cyfitter_cfg.c **** *
 309:Generated_Source\PSoC5/cyfitter_cfg.c **** * Summary:
 310:Generated_Source\PSoC5/cyfitter_cfg.c **** * Enables or disables the analog pumps feeding analog routing switches.
 311:Generated_Source\PSoC5/cyfitter_cfg.c **** * Intended to be called at startup, based on the Vdda system configuration;
 312:Generated_Source\PSoC5/cyfitter_cfg.c **** * may be called during operation when the user informs us that the Vdda voltage
 313:Generated_Source\PSoC5/cyfitter_cfg.c **** * crossed the pump threshold.
 314:Generated_Source\PSoC5/cyfitter_cfg.c **** *
 315:Generated_Source\PSoC5/cyfitter_cfg.c **** * Parameters:
 316:Generated_Source\PSoC5/cyfitter_cfg.c **** *  enabled - 1 to enable the pumps, 0 to disable the pumps
 317:Generated_Source\PSoC5/cyfitter_cfg.c **** *
 318:Generated_Source\PSoC5/cyfitter_cfg.c **** * Return:
 319:Generated_Source\PSoC5/cyfitter_cfg.c **** *  void
 320:Generated_Source\PSoC5/cyfitter_cfg.c **** *
 321:Generated_Source\PSoC5/cyfitter_cfg.c **** *******************************************************************************/
 322:Generated_Source\PSoC5/cyfitter_cfg.c **** void SetAnalogRoutingPumps(uint8 enabled)
 323:Generated_Source\PSoC5/cyfitter_cfg.c **** {
 405              		.loc 1 323 0
 406              		.cfi_startproc
 407              		@ args = 0, pretend = 0, frame = 0
 408              		@ frame_needed = 0, uses_anonymous_args = 0
ARM GAS  C:\Users\BETTEF~1\AppData\Local\Temp\ccLikIhb.s 			page 14


 409              		@ link register save eliminated.
 410              	.LVL31:
 324:Generated_Source\PSoC5/cyfitter_cfg.c **** 	uint8 regValue = CY_GET_XTND_REG8((void CYFAR *)CYREG_PUMP_CR0);
 411              		.loc 1 324 0
 412 0000 054B     		ldr	r3, .L28
 413 0002 1B78     		ldrb	r3, [r3]	@ zero_extendqisi2
 414 0004 DBB2     		uxtb	r3, r3
 415              	.LVL32:
 325:Generated_Source\PSoC5/cyfitter_cfg.c **** 	if (enabled != 0u)
 416              		.loc 1 325 0
 417 0006 10B1     		cbz	r0, .L26
 326:Generated_Source\PSoC5/cyfitter_cfg.c **** 	{
 327:Generated_Source\PSoC5/cyfitter_cfg.c **** 		regValue |= 0x22u;
 418              		.loc 1 327 0
 419 0008 43F02203 		orr	r3, r3, #34
 420              	.LVL33:
 421 000c 01E0     		b	.L27
 422              	.L26:
 328:Generated_Source\PSoC5/cyfitter_cfg.c **** 	}
 329:Generated_Source\PSoC5/cyfitter_cfg.c **** 	else
 330:Generated_Source\PSoC5/cyfitter_cfg.c **** 	{
 331:Generated_Source\PSoC5/cyfitter_cfg.c **** 		regValue &= (uint8)~0x22u;
 423              		.loc 1 331 0
 424 000e 03F0DD03 		and	r3, r3, #221
 425              	.LVL34:
 426              	.L27:
 332:Generated_Source\PSoC5/cyfitter_cfg.c **** 	}
 333:Generated_Source\PSoC5/cyfitter_cfg.c **** 	CY_SET_XTND_REG8((void CYFAR *)CYREG_PUMP_CR0, regValue);
 427              		.loc 1 333 0
 428 0012 014A     		ldr	r2, .L28
 429 0014 1370     		strb	r3, [r2]
 430 0016 7047     		bx	lr
 431              	.L29:
 432              		.align	2
 433              	.L28:
 434 0018 76580040 		.word	1073764470
 435              		.cfi_endproc
 436              	.LFE7:
 437              		.size	SetAnalogRoutingPumps, .-SetAnalogRoutingPumps
 438              		.section	.text.cyfitter_cfg,"ax",%progbits
 439              		.align	2
 440              		.global	cyfitter_cfg
 441              		.thumb
 442              		.thumb_func
 443              		.type	cyfitter_cfg, %function
 444              	cyfitter_cfg:
 445              	.LFB8:
 334:Generated_Source\PSoC5/cyfitter_cfg.c **** }
 335:Generated_Source\PSoC5/cyfitter_cfg.c **** 
 336:Generated_Source\PSoC5/cyfitter_cfg.c **** #define CY_AMUX_UNUSED CYREG_BOOST_SR
 337:Generated_Source\PSoC5/cyfitter_cfg.c **** 
 338:Generated_Source\PSoC5/cyfitter_cfg.c **** 
 339:Generated_Source\PSoC5/cyfitter_cfg.c **** /*******************************************************************************
 340:Generated_Source\PSoC5/cyfitter_cfg.c **** * Function Name: cyfitter_cfg
 341:Generated_Source\PSoC5/cyfitter_cfg.c **** ********************************************************************************
 342:Generated_Source\PSoC5/cyfitter_cfg.c **** * Summary:
 343:Generated_Source\PSoC5/cyfitter_cfg.c **** *  This function is called by the start-up code for the selected device. It
ARM GAS  C:\Users\BETTEF~1\AppData\Local\Temp\ccLikIhb.s 			page 15


 344:Generated_Source\PSoC5/cyfitter_cfg.c **** *  performs all of the necessary device configuration based on the design
 345:Generated_Source\PSoC5/cyfitter_cfg.c **** *  settings.  This includes settings from the Design Wide Resources (DWR) such
 346:Generated_Source\PSoC5/cyfitter_cfg.c **** *  as Clocks and Pins as well as any component configuration that is necessary.
 347:Generated_Source\PSoC5/cyfitter_cfg.c **** *
 348:Generated_Source\PSoC5/cyfitter_cfg.c **** * Parameters:  
 349:Generated_Source\PSoC5/cyfitter_cfg.c **** *   void
 350:Generated_Source\PSoC5/cyfitter_cfg.c **** *
 351:Generated_Source\PSoC5/cyfitter_cfg.c **** * Return:
 352:Generated_Source\PSoC5/cyfitter_cfg.c **** *   void
 353:Generated_Source\PSoC5/cyfitter_cfg.c **** *
 354:Generated_Source\PSoC5/cyfitter_cfg.c **** *******************************************************************************/
 355:Generated_Source\PSoC5/cyfitter_cfg.c **** 
 356:Generated_Source\PSoC5/cyfitter_cfg.c **** void cyfitter_cfg(void)
 357:Generated_Source\PSoC5/cyfitter_cfg.c **** {
 446              		.loc 1 357 0
 447              		.cfi_startproc
 448              		@ args = 0, pretend = 0, frame = 0
 449              		@ frame_needed = 0, uses_anonymous_args = 0
 450 0000 38B5     		push	{r3, r4, r5, lr}
 451              		.cfi_def_cfa_offset 16
 452              		.cfi_offset 3, -16
 453              		.cfi_offset 4, -12
 454              		.cfi_offset 5, -8
 455              		.cfi_offset 14, -4
 358:Generated_Source\PSoC5/cyfitter_cfg.c **** #ifdef CYGlobalIntDisable
 359:Generated_Source\PSoC5/cyfitter_cfg.c **** 	/* Disable interrupts by default. Let user enable if/when they want. */
 360:Generated_Source\PSoC5/cyfitter_cfg.c **** 	CYGlobalIntDisable
 456              		.loc 1 360 0
 457              	@ 360 "Generated_Source\PSoC5\cyfitter_cfg.c" 1
 458 0002 72B6     		CPSID   i
 459              	@ 0 "" 2
 361:Generated_Source\PSoC5/cyfitter_cfg.c **** #endif
 362:Generated_Source\PSoC5/cyfitter_cfg.c **** 
 363:Generated_Source\PSoC5/cyfitter_cfg.c **** 	/* Enable/Disable Debug functionality based on settings from System DWR */
 364:Generated_Source\PSoC5/cyfitter_cfg.c **** 	CY_SET_XTND_REG8((void CYFAR *)CYREG_MLOGIC_DEBUG, (CY_GET_XTND_REG8((void CYFAR *)CYREG_MLOGIC_DE
 460              		.loc 1 364 0
 461              		.thumb
 462 0004 3A4A     		ldr	r2, .L36
 463 0006 1378     		ldrb	r3, [r2]	@ zero_extendqisi2
 464 0008 43F00403 		orr	r3, r3, #4
 465 000c 1370     		strb	r3, [r2]
 466              	.LVL35:
 467              	.LBB3:
 365:Generated_Source\PSoC5/cyfitter_cfg.c **** 
 366:Generated_Source\PSoC5/cyfitter_cfg.c **** 	{
 367:Generated_Source\PSoC5/cyfitter_cfg.c **** 
 368:Generated_Source\PSoC5/cyfitter_cfg.c **** 		CYPACKED typedef struct {
 369:Generated_Source\PSoC5/cyfitter_cfg.c **** 			void CYFAR *address;
 370:Generated_Source\PSoC5/cyfitter_cfg.c **** 			uint16 size;
 371:Generated_Source\PSoC5/cyfitter_cfg.c **** 		} CYPACKED_ATTR cfg_memset_t;
 372:Generated_Source\PSoC5/cyfitter_cfg.c **** 
 373:Generated_Source\PSoC5/cyfitter_cfg.c **** 
 374:Generated_Source\PSoC5/cyfitter_cfg.c **** 		CYPACKED typedef struct {
 375:Generated_Source\PSoC5/cyfitter_cfg.c **** 			void CYFAR *dest;
 376:Generated_Source\PSoC5/cyfitter_cfg.c **** 			const void CYFAR *src;
 377:Generated_Source\PSoC5/cyfitter_cfg.c **** 			uint16 size;
 378:Generated_Source\PSoC5/cyfitter_cfg.c **** 		} CYPACKED_ATTR cfg_memcpy_t;
ARM GAS  C:\Users\BETTEF~1\AppData\Local\Temp\ccLikIhb.s 			page 16


 379:Generated_Source\PSoC5/cyfitter_cfg.c **** 
 380:Generated_Source\PSoC5/cyfitter_cfg.c **** 		static const cfg_memset_t CYCODE cfg_memset_list [] = {
 381:Generated_Source\PSoC5/cyfitter_cfg.c **** 			/* address, size */
 382:Generated_Source\PSoC5/cyfitter_cfg.c **** 			{(void CYFAR *)(CYREG_PRT3_DR), 64u},
 383:Generated_Source\PSoC5/cyfitter_cfg.c **** 			{(void CYFAR *)(CYREG_PRT15_DR), 16u},
 384:Generated_Source\PSoC5/cyfitter_cfg.c **** 			{(void CYFAR *)(CYDEV_UCFG_B0_P0_U0_BASE), 4096u},
 385:Generated_Source\PSoC5/cyfitter_cfg.c **** 			{(void CYFAR *)(CYDEV_UCFG_B1_P2_U0_BASE), 2048u},
 386:Generated_Source\PSoC5/cyfitter_cfg.c **** 			{(void CYFAR *)(CYDEV_UCFG_DSI0_BASE), 2560u},
 387:Generated_Source\PSoC5/cyfitter_cfg.c **** 			{(void CYFAR *)(CYDEV_UCFG_DSI12_BASE), 512u},
 388:Generated_Source\PSoC5/cyfitter_cfg.c **** 			{(void CYFAR *)(CYREG_BCTL0_MDCLK_EN), 32u},
 389:Generated_Source\PSoC5/cyfitter_cfg.c **** 		};
 390:Generated_Source\PSoC5/cyfitter_cfg.c **** 
 391:Generated_Source\PSoC5/cyfitter_cfg.c **** 		static const cfg_memcpy_t CYCODE cfg_memcpy_list [] = {
 392:Generated_Source\PSoC5/cyfitter_cfg.c **** 			/* dest, src, size */
 393:Generated_Source\PSoC5/cyfitter_cfg.c **** 			{(void CYFAR *)(CYDEV_PRTDSI_PRT12_BASE), BS_IOPORT_7_VAL, 6u},
 394:Generated_Source\PSoC5/cyfitter_cfg.c **** 		};
 395:Generated_Source\PSoC5/cyfitter_cfg.c **** 
 396:Generated_Source\PSoC5/cyfitter_cfg.c **** 		uint8 CYDATA i;
 397:Generated_Source\PSoC5/cyfitter_cfg.c **** 
 398:Generated_Source\PSoC5/cyfitter_cfg.c **** 		/* Zero out critical memory blocks before beginning configuration */
 399:Generated_Source\PSoC5/cyfitter_cfg.c **** 		for (i = 0u; i < (sizeof(cfg_memset_list)/sizeof(cfg_memset_list[0])); i++)
 468              		.loc 1 399 0
 469 000e 0024     		movs	r4, #0
 470 0010 0CE0     		b	.L31
 471              	.LVL36:
 472              	.L32:
 473              	.LBB4:
 400:Generated_Source\PSoC5/cyfitter_cfg.c **** 		{
 401:Generated_Source\PSoC5/cyfitter_cfg.c **** 			const cfg_memset_t CYCODE * CYDATA ms = &cfg_memset_list[i];
 402:Generated_Source\PSoC5/cyfitter_cfg.c **** 			CYMEMZERO(ms->address, (size_t)(uint32)(ms->size));
 474              		.loc 1 402 0 discriminator 3
 475 0012 3849     		ldr	r1, .L36+4
 476 0014 6300     		lsls	r3, r4, #1
 477 0016 1A19     		adds	r2, r3, r4
 478 0018 5200     		lsls	r2, r2, #1
 479 001a 0A44     		add	r2, r2, r1
 480 001c 2344     		add	r3, r3, r4
 481 001e 5B00     		lsls	r3, r3, #1
 482 0020 C858     		ldr	r0, [r1, r3]	@ unaligned
 483 0022 9188     		ldrh	r1, [r2, #4]
 484 0024 FFF7FEFF 		bl	CYMEMZERO
 485              	.LVL37:
 486              	.LBE4:
 399:Generated_Source\PSoC5/cyfitter_cfg.c **** 		{
 487              		.loc 1 399 0 discriminator 3
 488 0028 0134     		adds	r4, r4, #1
 489              	.LVL38:
 490 002a E4B2     		uxtb	r4, r4
 491              	.LVL39:
 492              	.L31:
 399:Generated_Source\PSoC5/cyfitter_cfg.c **** 		{
 493              		.loc 1 399 0 is_stmt 0 discriminator 1
 494 002c 062C     		cmp	r4, #6
 495 002e F0D9     		bls	.L32
 496 0030 0024     		movs	r4, #0
 497              	.LVL40:
 498 0032 0BE0     		b	.L33
ARM GAS  C:\Users\BETTEF~1\AppData\Local\Temp\ccLikIhb.s 			page 17


 499              	.LVL41:
 500              	.L34:
 501              	.LBB5:
 403:Generated_Source\PSoC5/cyfitter_cfg.c **** 		}
 404:Generated_Source\PSoC5/cyfitter_cfg.c **** 
 405:Generated_Source\PSoC5/cyfitter_cfg.c **** 		/* Copy device configuration data into registers */
 406:Generated_Source\PSoC5/cyfitter_cfg.c **** 		for (i = 0u; i < (sizeof(cfg_memcpy_list)/sizeof(cfg_memcpy_list[0])); i++)
 407:Generated_Source\PSoC5/cyfitter_cfg.c **** 		{
 408:Generated_Source\PSoC5/cyfitter_cfg.c **** 			const cfg_memcpy_t CYCODE * CYDATA mc = &cfg_memcpy_list[i];
 409:Generated_Source\PSoC5/cyfitter_cfg.c **** 			void * CYDATA destPtr = mc->dest;
 502              		.loc 1 409 0 is_stmt 1 discriminator 3
 503 0034 2F49     		ldr	r1, .L36+4
 504 0036 A300     		lsls	r3, r4, #2
 505 0038 1A19     		adds	r2, r3, r4
 506 003a 5200     		lsls	r2, r2, #1
 507 003c 0A44     		add	r2, r2, r1
 508              	.LVL42:
 410:Generated_Source\PSoC5/cyfitter_cfg.c **** 			const void * CYDATA srcPtr = mc->src;
 411:Generated_Source\PSoC5/cyfitter_cfg.c **** 			uint16 CYDATA numBytes = mc->size;
 412:Generated_Source\PSoC5/cyfitter_cfg.c **** 			CYCONFIGCPY(destPtr, srcPtr, numBytes);
 509              		.loc 1 412 0 discriminator 3
 510 003e D06A     		ldr	r0, [r2, #44]	@ unaligned
 511              	.LVL43:
 512 0040 116B     		ldr	r1, [r2, #48]	@ unaligned
 513              	.LVL44:
 514 0042 0622     		movs	r2, #6
 515 0044 FFF7FEFF 		bl	CYCONFIGCPY
 516              	.LVL45:
 517              	.LBE5:
 406:Generated_Source\PSoC5/cyfitter_cfg.c **** 		{
 518              		.loc 1 406 0 discriminator 3
 519 0048 0134     		adds	r4, r4, #1
 520              	.LVL46:
 521 004a E4B2     		uxtb	r4, r4
 522              	.LVL47:
 523              	.L33:
 406:Generated_Source\PSoC5/cyfitter_cfg.c **** 		{
 524              		.loc 1 406 0 is_stmt 0 discriminator 1
 525 004c 002C     		cmp	r4, #0
 526 004e F1D0     		beq	.L34
 413:Generated_Source\PSoC5/cyfitter_cfg.c **** 		}
 414:Generated_Source\PSoC5/cyfitter_cfg.c **** 
 415:Generated_Source\PSoC5/cyfitter_cfg.c **** 		cfg_write_bytes32(cy_cfg_addr_table, cy_cfg_data_table);
 527              		.loc 1 415 0 is_stmt 1
 528 0050 4FF09040 		mov	r0, #1207959552
 529 0054 2849     		ldr	r1, .L36+8
 530 0056 FFF7FEFF 		bl	cfg_write_bytes32
 531              	.LVL48:
 416:Generated_Source\PSoC5/cyfitter_cfg.c **** 
 417:Generated_Source\PSoC5/cyfitter_cfg.c **** 		/* Perform normal device configuration. Order is not critical for these items. */
 418:Generated_Source\PSoC5/cyfitter_cfg.c **** 		CYMEMZERO((void CYFAR *)(CYREG_PHUB_CFGMEM0_CFG0), 4u);
 532              		.loc 1 418 0
 533 005a 2848     		ldr	r0, .L36+12
 534 005c 0421     		movs	r1, #4
 535 005e FFF7FEFF 		bl	CYMEMZERO
 536              	.LVL49:
 419:Generated_Source\PSoC5/cyfitter_cfg.c **** 		CYCONFIGCPY((void CYFAR *)(CYREG_PHUB_CFGMEM1_CFG0), (const void CYFAR *)(BS_PHUB_CFGMEM1_VAL), 4
ARM GAS  C:\Users\BETTEF~1\AppData\Local\Temp\ccLikIhb.s 			page 18


 537              		.loc 1 419 0
 538 0062 2748     		ldr	r0, .L36+16
 539 0064 2749     		ldr	r1, .L36+20
 540 0066 0422     		movs	r2, #4
 541 0068 FFF7FEFF 		bl	CYCONFIGCPY
 542              	.LVL50:
 420:Generated_Source\PSoC5/cyfitter_cfg.c **** 
 421:Generated_Source\PSoC5/cyfitter_cfg.c **** 		/* Enable digital routing */
 422:Generated_Source\PSoC5/cyfitter_cfg.c **** 		CY_SET_XTND_REG8((void CYFAR *)CYREG_BCTL0_BANK_CTL, CY_GET_XTND_REG8((void CYFAR *)CYREG_BCTL0_B
 543              		.loc 1 422 0
 544 006c 264A     		ldr	r2, .L36+24
 545 006e 1378     		ldrb	r3, [r2]	@ zero_extendqisi2
 546 0070 43F00203 		orr	r3, r3, #2
 547 0074 1370     		strb	r3, [r2]
 423:Generated_Source\PSoC5/cyfitter_cfg.c **** 		CY_SET_XTND_REG8((void CYFAR *)CYREG_BCTL1_BANK_CTL, CY_GET_XTND_REG8((void CYFAR *)CYREG_BCTL1_B
 548              		.loc 1 423 0
 549 0076 1032     		adds	r2, r2, #16
 550 0078 1378     		ldrb	r3, [r2]	@ zero_extendqisi2
 551 007a 43F00203 		orr	r3, r3, #2
 552 007e 1370     		strb	r3, [r2]
 424:Generated_Source\PSoC5/cyfitter_cfg.c **** 
 425:Generated_Source\PSoC5/cyfitter_cfg.c **** 		/* Enable UDB array */
 426:Generated_Source\PSoC5/cyfitter_cfg.c **** 		CY_SET_XTND_REG8((void CYFAR *)CYREG_PM_ACT_CFG0, CY_GET_XTND_REG8((void CYFAR *)CYREG_PM_ACT_CFG
 553              		.loc 1 426 0
 554 0080 224C     		ldr	r4, .L36+28
 555              	.LVL51:
 556 0082 2378     		ldrb	r3, [r4]	@ zero_extendqisi2
 557 0084 43F04003 		orr	r3, r3, #64
 558 0088 2370     		strb	r3, [r4]
 427:Generated_Source\PSoC5/cyfitter_cfg.c **** 		CY_SET_XTND_REG8((void CYFAR *)CYREG_PM_AVAIL_CR2, CY_GET_XTND_REG8((void CYFAR *)CYREG_PM_AVAIL_
 559              		.loc 1 427 0
 560 008a A2F58632 		sub	r2, r2, #68608
 561 008e 513A     		subs	r2, r2, #81
 562 0090 1378     		ldrb	r3, [r2]	@ zero_extendqisi2
 563 0092 43F01003 		orr	r3, r3, #16
 564 0096 1370     		strb	r3, [r2]
 565              	.LBE3:
 428:Generated_Source\PSoC5/cyfitter_cfg.c **** 	}
 429:Generated_Source\PSoC5/cyfitter_cfg.c **** 
 430:Generated_Source\PSoC5/cyfitter_cfg.c **** 
 431:Generated_Source\PSoC5/cyfitter_cfg.c **** 	/* Perform second pass device configuration. These items must be configured in specific order afte
 432:Generated_Source\PSoC5/cyfitter_cfg.c **** 	CYCONFIGCPY((void CYFAR *)(CYREG_PRT0_DM0), (const void CYFAR *)(BS_IOPINS0_0_VAL), 8u);
 566              		.loc 1 432 0
 567 0098 1D48     		ldr	r0, .L36+32
 568 009a 1E49     		ldr	r1, .L36+36
 569 009c 0822     		movs	r2, #8
 570 009e FFF7FEFF 		bl	CYCONFIGCPY
 571              	.LVL52:
 433:Generated_Source\PSoC5/cyfitter_cfg.c **** 	CYCONFIGCPY((void CYFAR *)(CYREG_PRT12_DR), (const void CYFAR *)(BS_IOPINS0_7_VAL), 10u);
 572              		.loc 1 433 0
 573 00a2 1D48     		ldr	r0, .L36+40
 574 00a4 1D49     		ldr	r1, .L36+44
 575 00a6 0A22     		movs	r2, #10
 576 00a8 FFF7FEFF 		bl	CYCONFIGCPY
 577              	.LVL53:
 434:Generated_Source\PSoC5/cyfitter_cfg.c **** 	CYCONFIGCPY((void CYFAR *)(CYREG_PRT1_DM0), (const void CYFAR *)(BS_IOPINS0_1_VAL), 8u);
 578              		.loc 1 434 0
ARM GAS  C:\Users\BETTEF~1\AppData\Local\Temp\ccLikIhb.s 			page 19


 579 00ac 1C48     		ldr	r0, .L36+48
 580 00ae 1D49     		ldr	r1, .L36+52
 581 00b0 0822     		movs	r2, #8
 582 00b2 FFF7FEFF 		bl	CYCONFIGCPY
 583              	.LVL54:
 435:Generated_Source\PSoC5/cyfitter_cfg.c **** 	CYCONFIGCPY((void CYFAR *)(CYREG_PRT2_DM0), (const void CYFAR *)(BS_IOPINS0_2_VAL), 8u);
 584              		.loc 1 435 0
 585 00b6 1C48     		ldr	r0, .L36+56
 586 00b8 1C49     		ldr	r1, .L36+60
 587 00ba 0822     		movs	r2, #8
 588 00bc FFF7FEFF 		bl	CYCONFIGCPY
 589              	.LVL55:
 436:Generated_Source\PSoC5/cyfitter_cfg.c **** 	/* Switch Boost to the precision bandgap reference from its internal reference */
 437:Generated_Source\PSoC5/cyfitter_cfg.c **** 	CY_SET_REG8((void CYXDATA *)CYREG_BOOST_CR2, (CY_GET_REG8((void CYXDATA *)CYREG_BOOST_CR2) | 0x08u
 590              		.loc 1 437 0
 591 00c0 1B4A     		ldr	r2, .L36+64
 592 00c2 1378     		ldrb	r3, [r2]	@ zero_extendqisi2
 593 00c4 43F00803 		orr	r3, r3, #8
 594 00c8 1370     		strb	r3, [r2]
 438:Generated_Source\PSoC5/cyfitter_cfg.c **** 
 439:Generated_Source\PSoC5/cyfitter_cfg.c **** 	/* Set Flash Cycles based on max possible frequency in case a glitch occurs during ClockSetup(). *
 440:Generated_Source\PSoC5/cyfitter_cfg.c **** 	CY_SET_XTND_REG8((void CYFAR *)(CYREG_CACHE_CC_CTL), (((CYDEV_INSTRUCT_CACHE_ENABLED) != 0) ? 0x61
 595              		.loc 1 440 0
 596 00ca 1A4D     		ldr	r5, .L36+68
 597 00cc 6123     		movs	r3, #97
 598 00ce 2B70     		strb	r3, [r5]
 441:Generated_Source\PSoC5/cyfitter_cfg.c **** 	/* Setup clocks based on selections from Clock DWR */
 442:Generated_Source\PSoC5/cyfitter_cfg.c **** 	ClockSetup();
 599              		.loc 1 442 0
 600 00d0 FFF7FEFF 		bl	ClockSetup
 601              	.LVL56:
 443:Generated_Source\PSoC5/cyfitter_cfg.c **** 	/* Set Flash Cycles based on newly configured 24.00MHz Bus Clock. */
 444:Generated_Source\PSoC5/cyfitter_cfg.c **** 	CY_SET_XTND_REG8((void CYFAR *)(CYREG_CACHE_CC_CTL), (((CYDEV_INSTRUCT_CACHE_ENABLED) != 0) ? 0x81
 602              		.loc 1 444 0
 603 00d4 8123     		movs	r3, #129
 604 00d6 2B70     		strb	r3, [r5]
 445:Generated_Source\PSoC5/cyfitter_cfg.c **** 	CY_SET_XTND_REG8((void CYFAR *)(CYREG_PANTHER_WAITPIPE), 0x01u);
 605              		.loc 1 445 0
 606 00d8 0122     		movs	r2, #1
 607 00da 174B     		ldr	r3, .L36+72
 608 00dc 1A70     		strb	r2, [r3]
 446:Generated_Source\PSoC5/cyfitter_cfg.c **** 
 447:Generated_Source\PSoC5/cyfitter_cfg.c **** 	/* Perform basic analog initialization to defaults */
 448:Generated_Source\PSoC5/cyfitter_cfg.c **** 	AnalogSetDefault();
 609              		.loc 1 448 0
 610 00de FFF7FEFF 		bl	AnalogSetDefault
 611              	.LVL57:
 449:Generated_Source\PSoC5/cyfitter_cfg.c **** 
 450:Generated_Source\PSoC5/cyfitter_cfg.c **** 	/* Configure alternate active mode */
 451:Generated_Source\PSoC5/cyfitter_cfg.c **** 	CYCONFIGCPY((void CYFAR *)CYDEV_PM_STBY_BASE, (const void CYFAR *)CYDEV_PM_ACT_BASE, 14u);
 612              		.loc 1 451 0
 613 00e2 1648     		ldr	r0, .L36+76
 614 00e4 2146     		mov	r1, r4
 615 00e6 0E22     		movs	r2, #14
 616 00e8 FFF7FEFF 		bl	CYCONFIGCPY
 617              	.LVL58:
 618 00ec 38BD     		pop	{r3, r4, r5, pc}
ARM GAS  C:\Users\BETTEF~1\AppData\Local\Temp\ccLikIhb.s 			page 20


 619              	.L37:
 620 00ee 00BF     		.align	2
 621              	.L36:
 622 00f0 E8460040 		.word	1073759976
 623 00f4 00000000 		.word	.LANCHOR0
 624 00f8 88000048 		.word	1207959688
 625 00fc 00760040 		.word	1073772032
 626 0100 08760040 		.word	1073772040
 627 0104 54070048 		.word	1207961428
 628 0108 03500140 		.word	1073827843
 629 010c A0430040 		.word	1073759136
 630 0110 02510040 		.word	1073762562
 631 0114 30070048 		.word	1207961392
 632 0118 C0510040 		.word	1073762752
 633 011c 38070048 		.word	1207961400
 634 0120 12510040 		.word	1073762578
 635 0124 44070048 		.word	1207961412
 636 0128 22510040 		.word	1073762594
 637 012c 4C070048 		.word	1207961420
 638 0130 22430040 		.word	1073759010
 639 0134 00480040 		.word	1073760256
 640 0138 04000840 		.word	1074266116
 641 013c B0430040 		.word	1073759152
 642              		.cfi_endproc
 643              	.LFE8:
 644              		.size	cyfitter_cfg, .-cyfitter_cfg
 645              		.section	.rodata
 646              		.align	2
 647              		.set	.LANCHOR0,. + 0
 648              		.type	cfg_memset_list.4887, %object
 649              		.size	cfg_memset_list.4887, 42
 650              	cfg_memset_list.4887:
 651 0000 30510040 		.word	1073762608
 652 0004 4000     		.short	64
 653 0006 F0510040 		.4byte	1073762800
 654 000a 1000     		.short	16
 655 000c 00000140 		.word	1073807360
 656 0010 0010     		.short	4096
 657 0012 00140140 		.4byte	1073812480
 658 0016 0008     		.short	2048
 659 0018 00400140 		.word	1073823744
 660 001c 000A     		.short	2560
 661 001e 004C0140 		.4byte	1073826816
 662 0022 0002     		.short	512
 663 0024 00500140 		.word	1073827840
 664 0028 2000     		.short	32
 665 002a 0000     		.space	2
 666              		.type	cfg_memcpy_list.4888, %object
 667              		.size	cfg_memcpy_list.4888, 10
 668              	cfg_memcpy_list.4888:
 669 002c 60520040 		.word	1073762912
 670 0030 28070048 		.word	1207961384
 671 0034 0600     		.short	6
 672 0036 0000     		.text
 673              	.Letext0:
 674              		.file 2 "c:\\program files (x86)\\cypress\\psoc creator\\4.0\\psoc creator\\import\\gnu\\arm\\4.9.
 675              		.file 3 "Generated_Source\\PSoC5\\cytypes.h"
ARM GAS  C:\Users\BETTEF~1\AppData\Local\Temp\ccLikIhb.s 			page 21


 676              		.file 4 "Generated_Source\\PSoC5\\CyLib.h"