ARM GAS  C:\Users\BETTEF~1\AppData\Local\Temp\ccSoVmWc.s 			page 1


   1              		.syntax unified
   2              		.cpu cortex-m3
   3              		.fpu softvfp
   4              		.eabi_attribute 20, 1
   5              		.eabi_attribute 21, 1
   6              		.eabi_attribute 23, 3
   7              		.eabi_attribute 24, 1
   8              		.eabi_attribute 25, 1
   9              		.eabi_attribute 26, 1
  10              		.eabi_attribute 30, 1
  11              		.eabi_attribute 34, 1
  12              		.eabi_attribute 18, 4
  13              		.thumb
  14              		.file	"main.c"
  15              		.text
  16              	.Ltext0:
  17              		.cfi_sections	.debug_frame
  18              		.section	.text.isr_RxD,"ax",%progbits
  19              		.align	2
  20              		.global	isr_RxD
  21              		.thumb
  22              		.thumb_func
  23              		.type	isr_RxD, %function
  24              	isr_RxD:
  25              	.LFB63:
  26              		.file 1 "main.c"
   1:main.c        **** #include "project.h"
   2:main.c        **** #include <stdio.h>
   3:main.c        **** 
   4:main.c        **** uint8 step = 0b1100; // Start position for motor - global variabel
   5:main.c        **** uint16 stepCount = 0;
   6:main.c        **** uint8 enabled = 0;
   7:main.c        **** void motorRunLeft();
   8:main.c        **** void motorRunRight();
   9:main.c        **** 
  10:main.c        **** enum voltageBoundary {
  11:main.c        ****     LOW = 72,       // Bottle not detected
  12:main.c        **** };
  13:main.c        **** 
  14:main.c        **** CY_ISR(isr_RxD)
  15:main.c        **** {
  27              		.loc 1 15 0
  28              		.cfi_startproc
  29              		@ args = 0, pretend = 0, frame = 0
  30              		@ frame_needed = 0, uses_anonymous_args = 0
  31 0000 08B5     		push	{r3, lr}
  32              		.cfi_def_cfa_offset 8
  33              		.cfi_offset 3, -8
  34              		.cfi_offset 14, -4
  16:main.c        ****     uint8 rxCmd;
  17:main.c        ****     
  18:main.c        ****     rxCmd = UART_1_ReadRxData();
  35              		.loc 1 18 0
  36 0002 FFF7FEFF 		bl	UART_1_ReadRxData
  37              	.LVL0:
  19:main.c        ****     
  20:main.c        ****     if(rxCmd == 48) {
ARM GAS  C:\Users\BETTEF~1\AppData\Local\Temp\ccSoVmWc.s 			page 2


  38              		.loc 1 20 0
  39 0006 3028     		cmp	r0, #48
  40 0008 09D1     		bne	.L1
  21:main.c        ****         
  22:main.c        ****         // Start sensor
  23:main.c        ****         ADC_SAR_Seq_1_Start();
  41              		.loc 1 23 0
  42 000a FFF7FEFF 		bl	ADC_SAR_Seq_1_Start
  43              	.LVL1:
  24:main.c        ****         ADC_SAR_Seq_1_StartConvert();
  44              		.loc 1 24 0
  45 000e FFF7FEFF 		bl	ADC_SAR_Seq_1_StartConvert
  46              	.LVL2:
  25:main.c        ****         ADC_SAR_Seq_1_IsEndConversion(ADC_SAR_Seq_1_WAIT_FOR_RESULT);
  47              		.loc 1 25 0
  48 0012 0020     		movs	r0, #0
  49 0014 FFF7FEFF 		bl	ADC_SAR_Seq_1_IsEndConversion
  50              	.LVL3:
  26:main.c        ****         
  27:main.c        ****         // Enables bottle-search
  28:main.c        ****         enabled = 1;
  51              		.loc 1 28 0
  52 0018 0122     		movs	r2, #1
  53 001a 014B     		ldr	r3, .L4
  54 001c 1A70     		strb	r2, [r3]
  55              	.L1:
  56 001e 08BD     		pop	{r3, pc}
  57              	.L5:
  58              		.align	2
  59              	.L4:
  60 0020 00000000 		.word	.LANCHOR0
  61              		.cfi_endproc
  62              	.LFE63:
  63              		.size	isr_RxD, .-isr_RxD
  64              		.section	.text.rotateRight,"ax",%progbits
  65              		.align	2
  66              		.global	rotateRight
  67              		.thumb
  68              		.thumb_func
  69              		.type	rotateRight, %function
  70              	rotateRight:
  71              	.LFB64:
  29:main.c        ****     }
  30:main.c        **** }
  31:main.c        **** 
  32:main.c        **** uint8 rotateRight(uint8 value)      // Shifter bit en til højre
  33:main.c        **** {
  72              		.loc 1 33 0
  73              		.cfi_startproc
  74              		@ args = 0, pretend = 0, frame = 0
  75              		@ frame_needed = 0, uses_anonymous_args = 0
  76              		@ link register save eliminated.
  77              	.LVL4:
  34:main.c        ****     return  (value >> 1) | ( (value << 3) & 15);
  78              		.loc 1 34 0
  79 0000 C300     		lsls	r3, r0, #3
  80 0002 03F00F03 		and	r3, r3, #15
ARM GAS  C:\Users\BETTEF~1\AppData\Local\Temp\ccSoVmWc.s 			page 3


  35:main.c        **** }
  81              		.loc 1 35 0
  82 0006 43EA5000 		orr	r0, r3, r0, lsr #1
  83              	.LVL5:
  84 000a 7047     		bx	lr
  85              		.cfi_endproc
  86              	.LFE64:
  87              		.size	rotateRight, .-rotateRight
  88              		.section	.text.rotateLeft,"ax",%progbits
  89              		.align	2
  90              		.global	rotateLeft
  91              		.thumb
  92              		.thumb_func
  93              		.type	rotateLeft, %function
  94              	rotateLeft:
  95              	.LFB65:
  36:main.c        **** 
  37:main.c        **** uint8 rotateLeft(uint8 value)      // Shifter bit en til venstre
  38:main.c        **** {
  96              		.loc 1 38 0
  97              		.cfi_startproc
  98              		@ args = 0, pretend = 0, frame = 0
  99              		@ frame_needed = 0, uses_anonymous_args = 0
 100              		@ link register save eliminated.
 101              	.LVL6:
  39:main.c        ****     return  (value >> 3) | ( (value << 1) & 15);
 102              		.loc 1 39 0
 103 0000 4300     		lsls	r3, r0, #1
 104 0002 03F00F03 		and	r3, r3, #15
  40:main.c        **** }
 105              		.loc 1 40 0
 106 0006 43EAD000 		orr	r0, r3, r0, lsr #3
 107              	.LVL7:
 108 000a 7047     		bx	lr
 109              		.cfi_endproc
 110              	.LFE65:
 111              		.size	rotateLeft, .-rotateLeft
 112              		.section	.text.motorRunLeft,"ax",%progbits
 113              		.align	2
 114              		.global	motorRunLeft
 115              		.thumb
 116              		.thumb_func
 117              		.type	motorRunLeft, %function
 118              	motorRunLeft:
 119              	.LFB67:
  41:main.c        **** 
  42:main.c        **** 
  43:main.c        **** int main()
  44:main.c        **** {
  45:main.c        ****     uint16 ADCResult;
  46:main.c        ****     uint16 i;
  47:main.c        ****     uint16 posRight;    // Right edge of bottle in no. of steps
  48:main.c        ****     uint16 posLeft;     // Left edge of bottle in no. of steps
  49:main.c        ****     uint16 width;       // Width of bottle in no. of steps
  50:main.c        ****     CyGlobalIntEnable;
  51:main.c        **** 
  52:main.c        ****     UART_1_Start();
ARM GAS  C:\Users\BETTEF~1\AppData\Local\Temp\ccSoVmWc.s 			page 4


  53:main.c        ****     isr_RxD_StartEx(isr_RxD);
  54:main.c        **** 
  55:main.c        ****     for(;;)
  56:main.c        ****     {
  57:main.c        ****         if(enabled) {
  58:main.c        ****             /*
  59:main.c        ****             // Find right edge of bottle
  60:main.c        ****             do {
  61:main.c        ****                 //ADCResult = ADC_SAR_Seq_1_GetResult16(0);
  62:main.c        ****                 
  63:main.c        ****                 motorRunLeft();
  64:main.c        ****             } while(1);
  65:main.c        ****             
  66:main.c        ****             posRight = stepCount;
  67:main.c        ****             
  68:main.c        ****             // Find left edge of bottle
  69:main.c        ****             do {
  70:main.c        ****                 ADCResult = ADC_SAR_Seq_1_GetResult16(0);
  71:main.c        ****                 
  72:main.c        ****                 motorRunLeft();
  73:main.c        ****             } while(ADCResult > LOW);
  74:main.c        ****             
  75:main.c        ****             posLeft = stepCount;
  76:main.c        ****             
  77:main.c        ****             ADC_SAR_Seq_1_Stop();
  78:main.c        ****             
  79:main.c        ****             // Calculate number of steps to middle of bottle
  80:main.c        ****             width = (posLeft - posRight)/2;
  81:main.c        ****             
  82:main.c        ****             // Find middle of bottle
  83:main.c        ****             for(i = width; i > 0; --i) {
  84:main.c        ****                 motorRunRight();
  85:main.c        ****             }
  86:main.c        ****             
  87:main.c        ****             // Stop bottle-search
  88:main.c        ****             enabled = 0;*/
  89:main.c        ****             int a, b;
  90:main.c        ****             
  91:main.c        ****             for(a = 0; a < 100000; a++) {
  92:main.c        ****                 motorRunLeft();
  93:main.c        ****             }
  94:main.c        ****             for(b = 0; b < 100000; b++) {
  95:main.c        ****                 motorRunRight();
  96:main.c        ****             }
  97:main.c        ****             enabled = 0;
  98:main.c        ****         }
  99:main.c        ****     }
 100:main.c        ****     
 101:main.c        ****     return 0;
 102:main.c        **** }
 103:main.c        **** 
 104:main.c        **** void motorRunLeft()
 105:main.c        **** {
 120              		.loc 1 105 0
 121              		.cfi_startproc
 122              		@ args = 0, pretend = 0, frame = 0
 123              		@ frame_needed = 0, uses_anonymous_args = 0
ARM GAS  C:\Users\BETTEF~1\AppData\Local\Temp\ccSoVmWc.s 			page 5


 124 0000 38B5     		push	{r3, r4, r5, lr}
 125              		.cfi_def_cfa_offset 16
 126              		.cfi_offset 3, -16
 127              		.cfi_offset 4, -12
 128              		.cfi_offset 5, -8
 129              		.cfi_offset 14, -4
 130              	.LVL8:
 106:main.c        ****     int i;
 107:main.c        ****     for(i = 0; i < 10; i++) {
 131              		.loc 1 107 0
 132 0002 0024     		movs	r4, #0
 133 0004 0AE0     		b	.L9
 134              	.LVL9:
 135              	.L10:
 108:main.c        ****         step = rotateLeft(step);
 136              		.loc 1 108 0 discriminator 3
 137 0006 094D     		ldr	r5, .L12
 138 0008 2878     		ldrb	r0, [r5]	@ zero_extendqisi2
 139 000a FFF7FEFF 		bl	rotateLeft
 140              	.LVL10:
 141 000e 2870     		strb	r0, [r5]
 109:main.c        ****         Coils_1_Write(step);              // Skriver til pins fra TopDesign (Coils)
 142              		.loc 1 109 0 discriminator 3
 143 0010 FFF7FEFF 		bl	Coils_1_Write
 144              	.LVL11:
 110:main.c        ****         CyDelay(2);
 145              		.loc 1 110 0 discriminator 3
 146 0014 0220     		movs	r0, #2
 147 0016 FFF7FEFF 		bl	CyDelay
 148              	.LVL12:
 107:main.c        ****         step = rotateLeft(step);
 149              		.loc 1 107 0 discriminator 3
 150 001a 0134     		adds	r4, r4, #1
 151              	.LVL13:
 152              	.L9:
 107:main.c        ****         step = rotateLeft(step);
 153              		.loc 1 107 0 is_stmt 0 discriminator 1
 154 001c 092C     		cmp	r4, #9
 155 001e F2DD     		ble	.L10
 111:main.c        ****     }
 112:main.c        ****     ++stepCount;
 156              		.loc 1 112 0 is_stmt 1
 157 0020 034A     		ldr	r2, .L12+4
 158 0022 5388     		ldrh	r3, [r2, #2]
 159 0024 0133     		adds	r3, r3, #1
 160 0026 5380     		strh	r3, [r2, #2]	@ movhi
 161 0028 38BD     		pop	{r3, r4, r5, pc}
 162              	.LVL14:
 163              	.L13:
 164 002a 00BF     		.align	2
 165              	.L12:
 166 002c 00000000 		.word	.LANCHOR1
 167 0030 00000000 		.word	.LANCHOR0
 168              		.cfi_endproc
 169              	.LFE67:
 170              		.size	motorRunLeft, .-motorRunLeft
 171              		.section	.text.motorRunRight,"ax",%progbits
ARM GAS  C:\Users\BETTEF~1\AppData\Local\Temp\ccSoVmWc.s 			page 6


 172              		.align	2
 173              		.global	motorRunRight
 174              		.thumb
 175              		.thumb_func
 176              		.type	motorRunRight, %function
 177              	motorRunRight:
 178              	.LFB68:
 113:main.c        **** }
 114:main.c        **** 
 115:main.c        **** void motorRunRight()
 116:main.c        **** {
 179              		.loc 1 116 0
 180              		.cfi_startproc
 181              		@ args = 0, pretend = 0, frame = 0
 182              		@ frame_needed = 0, uses_anonymous_args = 0
 183 0000 38B5     		push	{r3, r4, r5, lr}
 184              		.cfi_def_cfa_offset 16
 185              		.cfi_offset 3, -16
 186              		.cfi_offset 4, -12
 187              		.cfi_offset 5, -8
 188              		.cfi_offset 14, -4
 189              	.LVL15:
 117:main.c        ****     int i;
 118:main.c        ****     for(i = 0; i < 10; i++) {
 190              		.loc 1 118 0
 191 0002 0024     		movs	r4, #0
 192 0004 0AE0     		b	.L15
 193              	.LVL16:
 194              	.L16:
 119:main.c        ****         step = rotateRight(step);
 195              		.loc 1 119 0 discriminator 3
 196 0006 094D     		ldr	r5, .L18
 197 0008 2878     		ldrb	r0, [r5]	@ zero_extendqisi2
 198 000a FFF7FEFF 		bl	rotateRight
 199              	.LVL17:
 200 000e 2870     		strb	r0, [r5]
 120:main.c        ****         Coils_1_Write(step);              // Skriver til pins fra TopDesign (Coils)
 201              		.loc 1 120 0 discriminator 3
 202 0010 FFF7FEFF 		bl	Coils_1_Write
 203              	.LVL18:
 121:main.c        ****         CyDelay(2);
 204              		.loc 1 121 0 discriminator 3
 205 0014 0220     		movs	r0, #2
 206 0016 FFF7FEFF 		bl	CyDelay
 207              	.LVL19:
 118:main.c        ****         step = rotateRight(step);
 208              		.loc 1 118 0 discriminator 3
 209 001a 0134     		adds	r4, r4, #1
 210              	.LVL20:
 211              	.L15:
 118:main.c        ****         step = rotateRight(step);
 212              		.loc 1 118 0 is_stmt 0 discriminator 1
 213 001c 092C     		cmp	r4, #9
 214 001e F2DD     		ble	.L16
 122:main.c        ****     }
 123:main.c        ****     --stepCount;
 215              		.loc 1 123 0 is_stmt 1
ARM GAS  C:\Users\BETTEF~1\AppData\Local\Temp\ccSoVmWc.s 			page 7


 216 0020 034A     		ldr	r2, .L18+4
 217 0022 5388     		ldrh	r3, [r2, #2]
 218 0024 013B     		subs	r3, r3, #1
 219 0026 5380     		strh	r3, [r2, #2]	@ movhi
 220 0028 38BD     		pop	{r3, r4, r5, pc}
 221              	.LVL21:
 222              	.L19:
 223 002a 00BF     		.align	2
 224              	.L18:
 225 002c 00000000 		.word	.LANCHOR1
 226 0030 00000000 		.word	.LANCHOR0
 227              		.cfi_endproc
 228              	.LFE68:
 229              		.size	motorRunRight, .-motorRunRight
 230              		.section	.text.main,"ax",%progbits
 231              		.align	2
 232              		.global	main
 233              		.thumb
 234              		.thumb_func
 235              		.type	main, %function
 236              	main:
 237              	.LFB66:
  44:main.c        ****     uint16 ADCResult;
 238              		.loc 1 44 0
 239              		.cfi_startproc
 240              		@ args = 0, pretend = 0, frame = 0
 241              		@ frame_needed = 0, uses_anonymous_args = 0
 242 0000 10B5     		push	{r4, lr}
 243              		.cfi_def_cfa_offset 8
 244              		.cfi_offset 4, -8
 245              		.cfi_offset 14, -4
  50:main.c        **** 
 246              		.loc 1 50 0
 247              	@ 50 "main.c" 1
 248 0002 62B6     		CPSIE   i
 249              	@ 0 "" 2
  52:main.c        ****     isr_RxD_StartEx(isr_RxD);
 250              		.loc 1 52 0
 251              		.thumb
 252 0004 FFF7FEFF 		bl	UART_1_Start
 253              	.LVL22:
  53:main.c        **** 
 254              		.loc 1 53 0
 255 0008 0D48     		ldr	r0, .L29
 256 000a FFF7FEFF 		bl	isr_RxD_StartEx
 257              	.LVL23:
 258              	.L22:
  57:main.c        ****             /*
 259              		.loc 1 57 0
 260 000e 0D4B     		ldr	r3, .L29+4
 261 0010 1B78     		ldrb	r3, [r3]	@ zero_extendqisi2
 262 0012 002B     		cmp	r3, #0
 263 0014 FBD0     		beq	.L22
 264 0016 03E0     		b	.L27
 265              	.LVL24:
 266              	.L23:
 267              	.LBB2:
ARM GAS  C:\Users\BETTEF~1\AppData\Local\Temp\ccSoVmWc.s 			page 8


  92:main.c        ****             }
 268              		.loc 1 92 0 discriminator 3
 269 0018 FFF7FEFF 		bl	motorRunLeft
 270              	.LVL25:
  91:main.c        ****                 motorRunLeft();
 271              		.loc 1 91 0 discriminator 3
 272 001c 0134     		adds	r4, r4, #1
 273              	.LVL26:
 274 001e 00E0     		b	.L21
 275              	.LVL27:
 276              	.L27:
 277              	.LBE2:
 278 0020 0024     		movs	r4, #0
 279              	.L21:
 280              	.LVL28:
 281              	.LBB3:
  91:main.c        ****                 motorRunLeft();
 282              		.loc 1 91 0 is_stmt 0 discriminator 1
 283 0022 094B     		ldr	r3, .L29+8
 284 0024 9C42     		cmp	r4, r3
 285 0026 F7DD     		ble	.L23
 286 0028 0024     		movs	r4, #0
 287              	.LVL29:
 288 002a 02E0     		b	.L24
 289              	.LVL30:
 290              	.L25:
  95:main.c        ****             }
 291              		.loc 1 95 0 is_stmt 1 discriminator 3
 292 002c FFF7FEFF 		bl	motorRunRight
 293              	.LVL31:
  94:main.c        ****                 motorRunRight();
 294              		.loc 1 94 0 discriminator 3
 295 0030 0134     		adds	r4, r4, #1
 296              	.LVL32:
 297              	.L24:
  94:main.c        ****                 motorRunRight();
 298              		.loc 1 94 0 is_stmt 0 discriminator 1
 299 0032 054B     		ldr	r3, .L29+8
 300 0034 9C42     		cmp	r4, r3
 301 0036 F9DD     		ble	.L25
  97:main.c        ****         }
 302              		.loc 1 97 0 is_stmt 1
 303 0038 0022     		movs	r2, #0
 304 003a 024B     		ldr	r3, .L29+4
 305 003c 1A70     		strb	r2, [r3]
 306 003e E6E7     		b	.L22
 307              	.L30:
 308              		.align	2
 309              	.L29:
 310 0040 00000000 		.word	isr_RxD
 311 0044 00000000 		.word	.LANCHOR0
 312 0048 9F860100 		.word	99999
 313              	.LBE3:
 314              		.cfi_endproc
 315              	.LFE66:
 316              		.size	main, .-main
 317              		.global	enabled
ARM GAS  C:\Users\BETTEF~1\AppData\Local\Temp\ccSoVmWc.s 			page 9


 318              		.global	stepCount
 319              		.global	step
 320              		.data
 321              		.set	.LANCHOR1,. + 0
 322              		.type	step, %object
 323              		.size	step, 1
 324              	step:
 325 0000 0C       		.byte	12
 326              		.bss
 327              		.align	1
 328              		.set	.LANCHOR0,. + 0
 329              		.type	enabled, %object
 330              		.size	enabled, 1
 331              	enabled:
 332 0000 00       		.space	1
 333 0001 00       		.space	1
 334              		.type	stepCount, %object
 335              		.size	stepCount, 2
 336              	stepCount:
 337 0002 0000     		.space	2
 338              		.text
 339              	.Letext0:
 340              		.file 2 "c:\\program files (x86)\\cypress\\psoc creator\\4.0\\psoc creator\\import\\gnu\\arm\\4.9.
 341              		.file 3 "c:\\program files (x86)\\cypress\\psoc creator\\4.0\\psoc creator\\import\\gnu\\arm\\4.9.
 342              		.file 4 "Generated_Source\\PSoC5/cytypes.h"
 343              		.file 5 "Generated_Source\\PSoC5/core_cm3.h"
 344              		.file 6 "Generated_Source\\PSoC5/ADC_SAR_Seq_1.h"
 345              		.file 7 "Generated_Source\\PSoC5/Coils_1.h"
 346              		.file 8 "Generated_Source\\PSoC5/CyLib.h"
 347              		.file 9 "Generated_Source\\PSoC5/UART_1.h"
 348              		.file 10 "Generated_Source\\PSoC5/isr_RxD.h"