ARM GAS  C:\Users\BETTEF~1\AppData\Local\Temp\ccp1ebVD.s 			page 1


   1              		.syntax unified
   2              		.cpu cortex-m3
   3              		.fpu softvfp
   4              		.eabi_attribute 20, 1
   5              		.eabi_attribute 21, 1
   6              		.eabi_attribute 23, 3
   7              		.eabi_attribute 24, 1
   8              		.eabi_attribute 25, 1
   9              		.eabi_attribute 26, 1
  10              		.eabi_attribute 30, 1
  11              		.eabi_attribute 34, 1
  12              		.eabi_attribute 18, 4
  13              		.thumb
  14              		.file	"main.c"
  15              		.text
  16              	.Ltext0:
  17              		.cfi_sections	.debug_frame
  18              		.section	.text.updateStatus,"ax",%progbits
  19              		.align	2
  20              		.global	updateStatus
  21              		.thumb
  22              		.thumb_func
  23              		.type	updateStatus, %function
  24              	updateStatus:
  25              	.LFB66:
  26              		.file 1 "main.c"
   1:main.c        **** #include "project.h"
   2:main.c        **** #include <stdio.h>
   3:main.c        **** 
   4:main.c        **** uint8 status;
   5:main.c        **** 
   6:main.c        **** void updateStatus(uint8);
   7:main.c        **** void writeToSlave(uint8);
   8:main.c        **** 
   9:main.c        **** enum SPI_protocol {
  10:main.c        ****     
  11:main.c        ****     // Commands from DK8k to PSoC-master/from PSoC-master to -slaves
  12:main.c        ****     GET_STATUS = 0x00,
  13:main.c        ****     LOCATE_XY = 0x01,
  14:main.c        ****     OPEN_BOTTLE = 0x02,
  15:main.c        ****     
  16:main.c        ****     // Command from PSoC-master to -slaves
  17:main.c        ****     LOCATE_Z_1 = 0x03,
  18:main.c        ****     LOCATE_Z_2 = 0x04,
  19:main.c        ****     RESET = 0x05,
  20:main.c        ****     DISPENSE_CORK = 0x06,
  21:main.c        ****     
  22:main.c        ****     // Feedback messages from PSoC-slaves to -master
  23:main.c        ****     VALID_XY = 0x10,
  24:main.c        ****     INVALID_XY = 0x20,
  25:main.c        ****     RESET_XY_ON_SUCCESS = 0x35, // Only if bottle has been opened
  26:main.c        ****     MOVED_Z_1 = 0x11,
  27:main.c        ****     MOVED_Z_2 = 0x12,
  28:main.c        ****     VALID_Z = 0x13,
  29:main.c        ****     RESET_Z = 0x34,
  30:main.c        ****     OPENING_SUCCESSFUL = 0x15,
  31:main.c        ****     CORK_DISPENSED = 0x16,
ARM GAS  C:\Users\BETTEF~1\AppData\Local\Temp\ccp1ebVD.s 			page 2


  32:main.c        ****     READY_TO_DRINK = 0x17,
  33:main.c        ****     
  34:main.c        ****     // Feedback messages from PSoC-master to DK8k/from PSoC-slaves to -master
  35:main.c        ****     VALID_TYPE = 0x14,
  36:main.c        ****     INVALID_TYPE = 0x21,
  37:main.c        ****     NO_BOTTLE = 0x22,
  38:main.c        ****     DEFAULT = 0x30,
  39:main.c        ****     WRONG_COMMAND = 0x31,
  40:main.c        ****     WRONG_DEVICE = 0x32,
  41:main.c        ****     IN_PROCESS = 0x33,
  42:main.c        **** };
  43:main.c        **** 
  44:main.c        **** CY_ISR(isr_1)
  45:main.c        **** {
  46:main.c        ****     uint16 rxvalue;
  47:main.c        **** 	uint8 cmd;
  48:main.c        **** 	uint8 addr;
  49:main.c        ****     
  50:main.c        ****     rxvalue = SPIS_1_ReadRxData(); // This also clears Rx Status Register
  51:main.c        ****     SPIS_1_ClearRxBuffer();
  52:main.c        ****     
  53:main.c        ****     /* Protocol - Write 8-bit: 
  54:main.c        **** 	 * |CMD|  ADDR  |    DATA    |
  55:main.c        **** 	 *  1 1 1      8 7          0
  56:main.c        **** 	 *	5 4 3
  57:main.c        **** 	 */
  58:main.c        **** 
  59:main.c        **** 	/* Protocol - Read 16-bit: 
  60:main.c        **** 	 * |CMD|  ADDR  |  Not Used  |       |           DATA          |
  61:main.c        **** 	 *  1 1 1      8 7          0         1                       0
  62:main.c        **** 	 *	5 4 3                             5
  63:main.c        **** 	 */
  64:main.c        ****     
  65:main.c        ****     cmd = (rxvalue >> 14) & 0x3;  // cmd = rdvalue[15:14]
  66:main.c        **** 	addr = (rxvalue >> 8) & 0x3f; // addr = rdvalue[13:8]
  67:main.c        ****     
  68:main.c        ****     switch (addr) {
  69:main.c        **** 		case 0x01:
  70:main.c        **** 			switch(cmd) {
  71:main.c        ****                 
  72:main.c        ****                 // Write status of bottle to DK8k
  73:main.c        **** 				case GET_STATUS:
  74:main.c        **** 					updateStatus(status);
  75:main.c        ****                     
  76:main.c        ****                     if(status != IN_PROCESS || status != VALID_TYPE) {
  77:main.c        ****                         status = DEFAULT;
  78:main.c        ****                     }
  79:main.c        **** 					break;
  80:main.c        ****                 
  81:main.c        ****                 // Registrate bottle
  82:main.c        **** 				case LOCATE_XY:
  83:main.c        ****                     updateStatus(IN_PROCESS);
  84:main.c        ****                     
  85:main.c        ****                     // Validate thickness of bottle neck
  86:main.c        ****                     writeToSlave(cmd);
  87:main.c        **** 					break;
  88:main.c        ****                 
ARM GAS  C:\Users\BETTEF~1\AppData\Local\Temp\ccp1ebVD.s 			page 3


  89:main.c        ****                 // Open bottle
  90:main.c        ****                 case OPEN_BOTTLE:
  91:main.c        ****                     updateStatus(IN_PROCESS);
  92:main.c        ****                     
  93:main.c        ****                     // Open bottle
  94:main.c        ****                     writeToSlave(cmd);
  95:main.c        ****                     break;
  96:main.c        ****                 
  97:main.c        ****                 // Unidentified command
  98:main.c        ****                 default:
  99:main.c        ****                     updateStatus(WRONG_COMMAND);
 100:main.c        ****                     break;
 101:main.c        ****             }
 102:main.c        **** 			break;
 103:main.c        ****         
 104:main.c        ****         // Unidentified address
 105:main.c        **** 		default:
 106:main.c        **** 			updateStatus(WRONG_DEVICE);
 107:main.c        **** 			break;
 108:main.c        **** 	}
 109:main.c        **** }
 110:main.c        **** 
 111:main.c        **** CY_ISR(isr_2)
 112:main.c        **** {
 113:main.c        ****     uint8 fb;
 114:main.c        ****     fb = SPIM_1_ReadRxData();
 115:main.c        ****     SPIM_1_ClearRxBuffer();
 116:main.c        ****     
 117:main.c        ****     switch(fb) {
 118:main.c        ****         
 119:main.c        ****         // Thickness of bottle neck OK
 120:main.c        ****         case VALID_XY:
 121:main.c        ****             
 122:main.c        ****             // Position x-sensor to just under top of bottle
 123:main.c        **** //            writeToZ(LOCATE_Z_1);
 124:main.c        ****             break;
 125:main.c        ****         
 126:main.c        ****         // X-sensor positioned to just under top of bottle
 127:main.c        ****         case MOVED_Z_1:
 128:main.c        ****             
 129:main.c        ****             // Validate top of bottle detected
 130:main.c        **** //            writeToXY(LOCATE_Z_1);
 131:main.c        ****             break;
 132:main.c        ****         
 133:main.c        ****         // Top of bottle detected
 134:main.c        ****         case VALID_Z:
 135:main.c        ****             
 136:main.c        ****             // Position x-sensor to just over top of bottle
 137:main.c        **** //            writeToZ(LOCATE_Z_2);
 138:main.c        ****             break;
 139:main.c        ****         
 140:main.c        ****         // X-sensor positioned to just over top of bottle
 141:main.c        ****         case MOVED_Z_2:
 142:main.c        ****             
 143:main.c        ****             // Validate no bottle detected
 144:main.c        **** //            writeToXY(LOCATE_Z_2);
 145:main.c        ****             break;
ARM GAS  C:\Users\BETTEF~1\AppData\Local\Temp\ccp1ebVD.s 			page 4


 146:main.c        ****         
 147:main.c        ****         // Valid bottle
 148:main.c        ****         case VALID_TYPE:
 149:main.c        ****             updateStatus(fb);
 150:main.c        ****             break;
 151:main.c        ****         
 152:main.c        ****         // Bottle open and ready to drink
 153:main.c        ****         case OPENING_SUCCESSFUL:
 154:main.c        **** //            writeToZ(RESET);
 155:main.c        ****             break;
 156:main.c        ****         
 157:main.c        ****         // X-sensor positioned to start-position on z-axis
 158:main.c        ****         case RESET_Z:
 159:main.c        ****             
 160:main.c        ****             // Position x- and y-sensor to start-positions on respectively x- and y-axes
 161:main.c        **** //            writeToXY(RESET);
 162:main.c        ****             break;
 163:main.c        ****         
 164:main.c        ****         // X- and y-sensor positioned to start-positions on respectively x- and y-axes
 165:main.c        ****         case RESET_XY_ON_SUCCESS:
 166:main.c        ****             
 167:main.c        ****             // Dispense of cork
 168:main.c        **** //            writeToXY(DISPENSE_CORK);
 169:main.c        ****             break;
 170:main.c        ****         
 171:main.c        ****         // Cork dispensed of
 172:main.c        ****         case CORK_DISPENSED:
 173:main.c        ****             updateStatus(READY_TO_DRINK);
 174:main.c        ****             break;
 175:main.c        ****         
 176:main.c        ****         // No bottle detected
 177:main.c        ****         case NO_BOTTLE:
 178:main.c        ****             updateStatus(fb);
 179:main.c        ****             
 180:main.c        ****             // Position x- and y-sensor to start positions on respectively x- and y-axes
 181:main.c        **** //            writeToXY(RESET);
 182:main.c        ****             break;
 183:main.c        ****         
 184:main.c        ****         // Invalid object inserted
 185:main.c        ****         case INVALID_XY:
 186:main.c        ****             updateStatus(INVALID_TYPE);
 187:main.c        ****             
 188:main.c        ****             // Position x- and y-sensor to start positions on respectively x- and y-axes
 189:main.c        **** //            writeToXY(RESET);
 190:main.c        ****             break;
 191:main.c        ****         
 192:main.c        ****         // Invalid object inserted/Bottle open
 193:main.c        ****         case INVALID_TYPE:
 194:main.c        ****             updateStatus(fb);
 195:main.c        ****             
 196:main.c        ****             // Position x-sensor to start-position on z-axis
 197:main.c        **** //            writeToZ(RESET);
 198:main.c        ****             break;
 199:main.c        ****         
 200:main.c        ****         default:
 201:main.c        ****             updateStatus(fb);
 202:main.c        ****             break;
ARM GAS  C:\Users\BETTEF~1\AppData\Local\Temp\ccp1ebVD.s 			page 5


 203:main.c        ****     }
 204:main.c        **** }
 205:main.c        **** 
 206:main.c        **** int main()
 207:main.c        **** {
 208:main.c        ****     updateStatus(DEFAULT);
 209:main.c        ****     CyGlobalIntEnable;
 210:main.c        ****     
 211:main.c        ****     SPIS_1_Start();
 212:main.c        **** 	SPIS_1_EnableRxInt();
 213:main.c        ****     isr_1_StartEx(isr_1);
 214:main.c        **** 	SPIS_1_ClearFIFO();
 215:main.c        **** 	SPIS_1_ClearTxBuffer();
 216:main.c        ****     
 217:main.c        ****     SPIM_1_Start();
 218:main.c        ****     SPIM_1_EnableRxInt();
 219:main.c        ****     isr_2_StartEx(isr_2);
 220:main.c        **** 	SPIM_1_ClearFIFO();
 221:main.c        **** 	SPIM_1_ClearTxBuffer();
 222:main.c        **** 
 223:main.c        ****     for(;;)
 224:main.c        ****     {
 225:main.c        ****     }
 226:main.c        **** }
 227:main.c        **** 
 228:main.c        **** // Update status of master-PSoC/message to be sent to DK8k
 229:main.c        **** void updateStatus(uint8 stat)
 230:main.c        **** {
  27              		.loc 1 230 0
  28              		.cfi_startproc
  29              		@ args = 0, pretend = 0, frame = 0
  30              		@ frame_needed = 0, uses_anonymous_args = 0
  31              	.LVL0:
  32 0000 10B5     		push	{r4, lr}
  33              		.cfi_def_cfa_offset 8
  34              		.cfi_offset 4, -8
  35              		.cfi_offset 14, -4
 231:main.c        ****     status = stat;
  36              		.loc 1 231 0
  37 0002 044C     		ldr	r4, .L3
  38 0004 2070     		strb	r0, [r4]
 232:main.c        ****     SPIS_1_ClearTxBuffer();
  39              		.loc 1 232 0
  40 0006 FFF7FEFF 		bl	SPIS_1_ClearTxBuffer
  41              	.LVL1:
 233:main.c        ****     SPIS_1_WriteTxData(status);
  42              		.loc 1 233 0
  43 000a 2078     		ldrb	r0, [r4]	@ zero_extendqisi2
  44 000c FFF7FEFF 		bl	SPIS_1_WriteTxData
  45              	.LVL2:
  46 0010 10BD     		pop	{r4, pc}
  47              	.L4:
  48 0012 00BF     		.align	2
  49              	.L3:
  50 0014 00000000 		.word	status
  51              		.cfi_endproc
  52              	.LFE66:
ARM GAS  C:\Users\BETTEF~1\AppData\Local\Temp\ccp1ebVD.s 			page 6


  53              		.size	updateStatus, .-updateStatus
  54              		.section	.text.isr_2,"ax",%progbits
  55              		.align	2
  56              		.global	isr_2
  57              		.thumb
  58              		.thumb_func
  59              		.type	isr_2, %function
  60              	isr_2:
  61              	.LFB64:
 112:main.c        ****     uint8 fb;
  62              		.loc 1 112 0
  63              		.cfi_startproc
  64              		@ args = 0, pretend = 0, frame = 0
  65              		@ frame_needed = 0, uses_anonymous_args = 0
  66 0000 10B5     		push	{r4, lr}
  67              		.cfi_def_cfa_offset 8
  68              		.cfi_offset 4, -8
  69              		.cfi_offset 14, -4
 114:main.c        ****     SPIM_1_ClearRxBuffer();
  70              		.loc 1 114 0
  71 0002 FFF7FEFF 		bl	SPIM_1_ReadRxData
  72              	.LVL3:
  73 0006 C4B2     		uxtb	r4, r0
  74              	.LVL4:
 115:main.c        ****     
  75              		.loc 1 115 0
  76 0008 FFF7FEFF 		bl	SPIM_1_ClearRxBuffer
  77              	.LVL5:
 117:main.c        ****         
  78              		.loc 1 117 0
  79 000c A4F11003 		sub	r3, r4, #16
  80 0010 252B     		cmp	r3, #37
  81 0012 28D8     		bhi	.L6
  82 0014 DFE803F0 		tbb	[pc, r3]
  83              	.L8:
  84 0018 2A       		.byte	(.L5-.L8)/2
  85 0019 2A       		.byte	(.L5-.L8)/2
  86 001a 2A       		.byte	(.L5-.L8)/2
  87 001b 2A       		.byte	(.L5-.L8)/2
  88 001c 13       		.byte	(.L9-.L8)/2
  89 001d 2A       		.byte	(.L5-.L8)/2
  90 001e 17       		.byte	(.L10-.L8)/2
  91 001f 27       		.byte	(.L6-.L8)/2
  92 0020 27       		.byte	(.L6-.L8)/2
  93 0021 27       		.byte	(.L6-.L8)/2
  94 0022 27       		.byte	(.L6-.L8)/2
  95 0023 27       		.byte	(.L6-.L8)/2
  96 0024 27       		.byte	(.L6-.L8)/2
  97 0025 27       		.byte	(.L6-.L8)/2
  98 0026 27       		.byte	(.L6-.L8)/2
  99 0027 27       		.byte	(.L6-.L8)/2
 100 0028 1F       		.byte	(.L11-.L8)/2
 101 0029 23       		.byte	(.L12-.L8)/2
 102 002a 1B       		.byte	(.L13-.L8)/2
 103 002b 27       		.byte	(.L6-.L8)/2
 104 002c 27       		.byte	(.L6-.L8)/2
 105 002d 27       		.byte	(.L6-.L8)/2
ARM GAS  C:\Users\BETTEF~1\AppData\Local\Temp\ccp1ebVD.s 			page 7


 106 002e 27       		.byte	(.L6-.L8)/2
 107 002f 27       		.byte	(.L6-.L8)/2
 108 0030 27       		.byte	(.L6-.L8)/2
 109 0031 27       		.byte	(.L6-.L8)/2
 110 0032 27       		.byte	(.L6-.L8)/2
 111 0033 27       		.byte	(.L6-.L8)/2
 112 0034 27       		.byte	(.L6-.L8)/2
 113 0035 27       		.byte	(.L6-.L8)/2
 114 0036 27       		.byte	(.L6-.L8)/2
 115 0037 27       		.byte	(.L6-.L8)/2
 116 0038 27       		.byte	(.L6-.L8)/2
 117 0039 27       		.byte	(.L6-.L8)/2
 118 003a 27       		.byte	(.L6-.L8)/2
 119 003b 27       		.byte	(.L6-.L8)/2
 120 003c 2A       		.byte	(.L5-.L8)/2
 121 003d 2A       		.byte	(.L5-.L8)/2
 122              		.p2align 1
 123              	.L9:
 149:main.c        ****             break;
 124              		.loc 1 149 0
 125 003e 2046     		mov	r0, r4
 126 0040 FFF7FEFF 		bl	updateStatus
 127              	.LVL6:
 150:main.c        ****         
 128              		.loc 1 150 0
 129 0044 10BD     		pop	{r4, pc}
 130              	.LVL7:
 131              	.L10:
 173:main.c        ****             break;
 132              		.loc 1 173 0
 133 0046 1720     		movs	r0, #23
 134 0048 FFF7FEFF 		bl	updateStatus
 135              	.LVL8:
 174:main.c        ****         
 136              		.loc 1 174 0
 137 004c 10BD     		pop	{r4, pc}
 138              	.LVL9:
 139              	.L13:
 178:main.c        ****             
 140              		.loc 1 178 0
 141 004e 2046     		mov	r0, r4
 142 0050 FFF7FEFF 		bl	updateStatus
 143              	.LVL10:
 182:main.c        ****         
 144              		.loc 1 182 0
 145 0054 10BD     		pop	{r4, pc}
 146              	.LVL11:
 147              	.L11:
 186:main.c        ****             
 148              		.loc 1 186 0
 149 0056 2120     		movs	r0, #33
 150 0058 FFF7FEFF 		bl	updateStatus
 151              	.LVL12:
 190:main.c        ****         
 152              		.loc 1 190 0
 153 005c 10BD     		pop	{r4, pc}
 154              	.LVL13:
ARM GAS  C:\Users\BETTEF~1\AppData\Local\Temp\ccp1ebVD.s 			page 8


 155              	.L12:
 194:main.c        ****             
 156              		.loc 1 194 0
 157 005e 2046     		mov	r0, r4
 158 0060 FFF7FEFF 		bl	updateStatus
 159              	.LVL14:
 198:main.c        ****         
 160              		.loc 1 198 0
 161 0064 10BD     		pop	{r4, pc}
 162              	.LVL15:
 163              	.L6:
 201:main.c        ****             break;
 164              		.loc 1 201 0
 165 0066 2046     		mov	r0, r4
 166 0068 FFF7FEFF 		bl	updateStatus
 167              	.LVL16:
 168              	.L5:
 169 006c 10BD     		pop	{r4, pc}
 170              		.cfi_endproc
 171              	.LFE64:
 172              		.size	isr_2, .-isr_2
 173 006e 00BF     		.section	.text.main,"ax",%progbits
 174              		.align	2
 175              		.global	main
 176              		.thumb
 177              		.thumb_func
 178              		.type	main, %function
 179              	main:
 180              	.LFB65:
 207:main.c        ****     updateStatus(DEFAULT);
 181              		.loc 1 207 0
 182              		.cfi_startproc
 183              		@ Volatile: function does not return.
 184              		@ args = 0, pretend = 0, frame = 0
 185              		@ frame_needed = 0, uses_anonymous_args = 0
 186 0000 08B5     		push	{r3, lr}
 187              		.cfi_def_cfa_offset 8
 188              		.cfi_offset 3, -8
 189              		.cfi_offset 14, -4
 208:main.c        ****     CyGlobalIntEnable;
 190              		.loc 1 208 0
 191 0002 3020     		movs	r0, #48
 192 0004 FFF7FEFF 		bl	updateStatus
 193              	.LVL17:
 209:main.c        ****     
 194              		.loc 1 209 0
 195              	@ 209 "main.c" 1
 196 0008 62B6     		CPSIE   i
 197              	@ 0 "" 2
 211:main.c        **** 	SPIS_1_EnableRxInt();
 198              		.loc 1 211 0
 199              		.thumb
 200 000a FFF7FEFF 		bl	SPIS_1_Start
 201              	.LVL18:
 212:main.c        ****     isr_1_StartEx(isr_1);
 202              		.loc 1 212 0
 203 000e FFF7FEFF 		bl	SPIS_1_EnableRxInt
ARM GAS  C:\Users\BETTEF~1\AppData\Local\Temp\ccp1ebVD.s 			page 9


 204              	.LVL19:
 213:main.c        **** 	SPIS_1_ClearFIFO();
 205              		.loc 1 213 0
 206 0012 0948     		ldr	r0, .L18
 207 0014 FFF7FEFF 		bl	isr_1_StartEx
 208              	.LVL20:
 214:main.c        **** 	SPIS_1_ClearTxBuffer();
 209              		.loc 1 214 0
 210 0018 FFF7FEFF 		bl	SPIS_1_ClearFIFO
 211              	.LVL21:
 215:main.c        ****     
 212              		.loc 1 215 0
 213 001c FFF7FEFF 		bl	SPIS_1_ClearTxBuffer
 214              	.LVL22:
 217:main.c        ****     SPIM_1_EnableRxInt();
 215              		.loc 1 217 0
 216 0020 FFF7FEFF 		bl	SPIM_1_Start
 217              	.LVL23:
 218:main.c        ****     isr_2_StartEx(isr_2);
 218              		.loc 1 218 0
 219 0024 FFF7FEFF 		bl	SPIM_1_EnableRxInt
 220              	.LVL24:
 219:main.c        **** 	SPIM_1_ClearFIFO();
 221              		.loc 1 219 0
 222 0028 0448     		ldr	r0, .L18+4
 223 002a FFF7FEFF 		bl	isr_2_StartEx
 224              	.LVL25:
 220:main.c        **** 	SPIM_1_ClearTxBuffer();
 225              		.loc 1 220 0
 226 002e FFF7FEFF 		bl	SPIM_1_ClearFIFO
 227              	.LVL26:
 221:main.c        **** 
 228              		.loc 1 221 0
 229 0032 FFF7FEFF 		bl	SPIM_1_ClearTxBuffer
 230              	.LVL27:
 231              	.L16:
 225:main.c        **** }
 232              		.loc 1 225 0 discriminator 1
 233 0036 FEE7     		b	.L16
 234              	.L19:
 235              		.align	2
 236              	.L18:
 237 0038 00000000 		.word	isr_1
 238 003c 00000000 		.word	isr_2
 239              		.cfi_endproc
 240              	.LFE65:
 241              		.size	main, .-main
 242              		.section	.text.writeToSlave,"ax",%progbits
 243              		.align	2
 244              		.global	writeToSlave
 245              		.thumb
 246              		.thumb_func
 247              		.type	writeToSlave, %function
 248              	writeToSlave:
 249              	.LFB67:
 234:main.c        **** }
 235:main.c        **** 
ARM GAS  C:\Users\BETTEF~1\AppData\Local\Temp\ccp1ebVD.s 			page 10


 236:main.c        **** // Write command to PSoC-slave
 237:main.c        **** void writeToSlave(uint8 cmd)
 238:main.c        **** {
 250              		.loc 1 238 0
 251              		.cfi_startproc
 252              		@ args = 0, pretend = 0, frame = 0
 253              		@ frame_needed = 0, uses_anonymous_args = 0
 254              	.LVL28:
 255 0000 10B5     		push	{r4, lr}
 256              		.cfi_def_cfa_offset 8
 257              		.cfi_offset 4, -8
 258              		.cfi_offset 14, -4
 259 0002 0446     		mov	r4, r0
 239:main.c        ****     SPIM_1_ClearTxBuffer();
 260              		.loc 1 239 0
 261 0004 FFF7FEFF 		bl	SPIM_1_ClearTxBuffer
 262              	.LVL29:
 240:main.c        ****     SS_2_Write(0);
 263              		.loc 1 240 0
 264 0008 0020     		movs	r0, #0
 265 000a FFF7FEFF 		bl	SS_2_Write
 266              	.LVL30:
 241:main.c        ****     SPIM_1_WriteTxData(cmd);
 267              		.loc 1 241 0
 268 000e 2046     		mov	r0, r4
 269 0010 FFF7FEFF 		bl	SPIM_1_WriteTxData
 270              	.LVL31:
 242:main.c        ****     SS_2_Write(1);
 271              		.loc 1 242 0
 272 0014 0120     		movs	r0, #1
 273 0016 FFF7FEFF 		bl	SS_2_Write
 274              	.LVL32:
 275 001a 10BD     		pop	{r4, pc}
 276              		.cfi_endproc
 277              	.LFE67:
 278              		.size	writeToSlave, .-writeToSlave
 279              		.section	.text.isr_1,"ax",%progbits
 280              		.align	2
 281              		.global	isr_1
 282              		.thumb
 283              		.thumb_func
 284              		.type	isr_1, %function
 285              	isr_1:
 286              	.LFB63:
  45:main.c        ****     uint16 rxvalue;
 287              		.loc 1 45 0
 288              		.cfi_startproc
 289              		@ args = 0, pretend = 0, frame = 0
 290              		@ frame_needed = 0, uses_anonymous_args = 0
 291 0000 38B5     		push	{r3, r4, r5, lr}
 292              		.cfi_def_cfa_offset 16
 293              		.cfi_offset 3, -16
 294              		.cfi_offset 4, -12
 295              		.cfi_offset 5, -8
 296              		.cfi_offset 14, -4
  50:main.c        ****     SPIS_1_ClearRxBuffer();
 297              		.loc 1 50 0
ARM GAS  C:\Users\BETTEF~1\AppData\Local\Temp\ccp1ebVD.s 			page 11


 298 0002 FFF7FEFF 		bl	SPIS_1_ReadRxData
 299              	.LVL33:
 300 0006 84B2     		uxth	r4, r0
 301              	.LVL34:
  51:main.c        ****     
 302              		.loc 1 51 0
 303 0008 FFF7FEFF 		bl	SPIS_1_ClearRxBuffer
 304              	.LVL35:
  65:main.c        **** 	addr = (rxvalue >> 8) & 0x3f; // addr = rdvalue[13:8]
 305              		.loc 1 65 0
 306 000c A50B     		lsrs	r5, r4, #14
 307              	.LVL36:
  66:main.c        ****     
 308              		.loc 1 66 0
 309 000e C4F30524 		ubfx	r4, r4, #8, #6
 310              	.LVL37:
  68:main.c        **** 		case 0x01:
 311              		.loc 1 68 0
 312 0012 012C     		cmp	r4, #1
 313 0014 1ED1     		bne	.L30
  70:main.c        ****                 
 314              		.loc 1 70 0
 315 0016 012D     		cmp	r5, #1
 316 0018 0AD0     		beq	.L26
 317 001a 15B1     		cbz	r5, .L27
 318 001c 022D     		cmp	r5, #2
 319 001e 0ED0     		beq	.L28
 320 0020 14E0     		b	.L31
 321              	.L27:
  74:main.c        ****                     
 322              		.loc 1 74 0
 323 0022 0E4C     		ldr	r4, .L33
 324              	.LVL38:
 325 0024 2078     		ldrb	r0, [r4]	@ zero_extendqisi2
 326 0026 FFF7FEFF 		bl	updateStatus
 327              	.LVL39:
  77:main.c        ****                     }
 328              		.loc 1 77 0
 329 002a 3023     		movs	r3, #48
 330 002c 2370     		strb	r3, [r4]
 331 002e 38BD     		pop	{r3, r4, r5, pc}
 332              	.LVL40:
 333              	.L26:
  83:main.c        ****                     
 334              		.loc 1 83 0
 335 0030 3320     		movs	r0, #51
 336 0032 FFF7FEFF 		bl	updateStatus
 337              	.LVL41:
  86:main.c        **** 					break;
 338              		.loc 1 86 0
 339 0036 2846     		mov	r0, r5
 340 0038 FFF7FEFF 		bl	writeToSlave
 341              	.LVL42:
  87:main.c        ****                 
 342              		.loc 1 87 0
 343 003c 38BD     		pop	{r3, r4, r5, pc}
 344              	.LVL43:
ARM GAS  C:\Users\BETTEF~1\AppData\Local\Temp\ccp1ebVD.s 			page 12


 345              	.L28:
  91:main.c        ****                     
 346              		.loc 1 91 0
 347 003e 3320     		movs	r0, #51
 348 0040 FFF7FEFF 		bl	updateStatus
 349              	.LVL44:
  94:main.c        ****                     break;
 350              		.loc 1 94 0
 351 0044 2846     		mov	r0, r5
 352 0046 FFF7FEFF 		bl	writeToSlave
 353              	.LVL45:
  95:main.c        ****                 
 354              		.loc 1 95 0
 355 004a 38BD     		pop	{r3, r4, r5, pc}
 356              	.LVL46:
 357              	.L31:
  99:main.c        ****                     break;
 358              		.loc 1 99 0
 359 004c 3120     		movs	r0, #49
 360 004e FFF7FEFF 		bl	updateStatus
 361              	.LVL47:
 100:main.c        ****             }
 362              		.loc 1 100 0
 363 0052 38BD     		pop	{r3, r4, r5, pc}
 364              	.LVL48:
 365              	.L30:
 106:main.c        **** 			break;
 366              		.loc 1 106 0
 367 0054 3220     		movs	r0, #50
 368 0056 FFF7FEFF 		bl	updateStatus
 369              	.LVL49:
 370 005a 38BD     		pop	{r3, r4, r5, pc}
 371              	.LVL50:
 372              	.L34:
 373              		.align	2
 374              	.L33:
 375 005c 00000000 		.word	status
 376              		.cfi_endproc
 377              	.LFE63:
 378              		.size	isr_1, .-isr_1
 379              		.comm	status,1,1
 380              		.text
 381              	.Letext0:
 382              		.file 2 "c:\\program files (x86)\\cypress\\psoc creator\\4.0\\psoc creator\\import\\gnu\\arm\\4.9.
 383              		.file 3 "c:\\program files (x86)\\cypress\\psoc creator\\4.0\\psoc creator\\import\\gnu\\arm\\4.9.
 384              		.file 4 "Generated_Source\\PSoC5/cytypes.h"
 385              		.file 5 "Generated_Source\\PSoC5/core_cm3.h"
 386              		.file 6 "Generated_Source\\PSoC5/SPIS_1.h"
 387              		.file 7 "Generated_Source\\PSoC5/isr_1.h"