ARM GAS  C:\Users\BETTEF~1\AppData\Local\Temp\ccJ1jzjF.s 			page 1


   1              		.syntax unified
   2              		.cpu cortex-m3
   3              		.fpu softvfp
   4              		.eabi_attribute 20, 1
   5              		.eabi_attribute 21, 1
   6              		.eabi_attribute 23, 3
   7              		.eabi_attribute 24, 1
   8              		.eabi_attribute 25, 1
   9              		.eabi_attribute 26, 1
  10              		.eabi_attribute 30, 1
  11              		.eabi_attribute 34, 1
  12              		.eabi_attribute 18, 4
  13              		.thumb
  14              		.file	"main.c"
  15              		.text
  16              	.Ltext0:
  17              		.cfi_sections	.debug_frame
  18              		.section	.text.updateStatus,"ax",%progbits
  19              		.align	2
  20              		.global	updateStatus
  21              		.thumb
  22              		.thumb_func
  23              		.type	updateStatus, %function
  24              	updateStatus:
  25              	.LFB66:
  26              		.file 1 "main.c"
   1:main.c        **** #include "project.h"
   2:main.c        **** #include <stdio.h>
   3:main.c        **** 
   4:main.c        **** uint8 status;
   5:main.c        **** 
   6:main.c        **** void updateStatus(uint8);
   7:main.c        **** void writeToXY(uint8);
   8:main.c        **** void writeToZ(uint8);   // Sensor used on x-axis is also used on z-axis
   9:main.c        **** 
  10:main.c        **** enum SPI_protocol {
  11:main.c        ****     
  12:main.c        ****     // Commands from DK8k to PSoC-master/from PSoC-master to -slaves
  13:main.c        ****     GET_STATUS = 0x00,
  14:main.c        ****     LOCATE_XY = 0x01,
  15:main.c        ****     LOCATE_Z_1 = 0x02,
  16:main.c        ****     LOCATE_Z_2 = 0x03,
  17:main.c        ****     OPEN_BOTTLE = 0x04,
  18:main.c        ****     
  19:main.c        ****     // Command from PSoC-master to -slaves
  20:main.c        ****     RESET = 0x05,
  21:main.c        ****     DISPENSE_CORK = 0x06,
  22:main.c        ****     
  23:main.c        ****     // Feedback messages from PSoC-slaves to -master
  24:main.c        ****     VALID_XY = 0x10,
  25:main.c        ****     INVALID_XY = 0x20,
  26:main.c        ****     RESET_XY_ON_SUCCESS = 0x35, // Only if bottle has been opened
  27:main.c        ****     MOVED_Z_1 = 0x11,
  28:main.c        ****     MOVED_Z_2 = 0x12,
  29:main.c        ****     VALID_Z = 0x13,
  30:main.c        ****     RESET_Z = 0x34,
  31:main.c        ****     OPENING_SUCCESSFUL = 0x15,
ARM GAS  C:\Users\BETTEF~1\AppData\Local\Temp\ccJ1jzjF.s 			page 2


  32:main.c        ****     CORK_DISPENSED = 0x16,
  33:main.c        ****     READY_TO_DRINK = 0x17,
  34:main.c        ****     
  35:main.c        ****     // Feedback messages from PSoC-master to DK8k/from PSoC-slaves to -master
  36:main.c        ****     VALID_TYPE = 0x14,
  37:main.c        ****     INVALID_TYPE = 0x21,
  38:main.c        ****     NO_BOTTLE = 0x22,
  39:main.c        ****     DEFAULT = 0x30,
  40:main.c        ****     WRONG_COMMAND = 0x31,
  41:main.c        ****     WRONG_DEVICE = 0x32,
  42:main.c        ****     IN_PROCESS = 0x33,
  43:main.c        **** };
  44:main.c        **** 
  45:main.c        **** CY_ISR(isr_1)
  46:main.c        **** {
  47:main.c        ****     uint16 rxvalue;
  48:main.c        **** 	uint8 cmd;
  49:main.c        **** 	uint8 addr;
  50:main.c        ****     
  51:main.c        ****     rxvalue = SPIS_1_ReadRxData(); // This also clears Rx Status Register
  52:main.c        ****     SPIS_1_ClearRxBuffer();
  53:main.c        ****     
  54:main.c        ****     /* Protocol - Write 8-bit: 
  55:main.c        **** 	 * |CMD|  ADDR  |    DATA    |
  56:main.c        **** 	 *  1 1 1      8 7          0
  57:main.c        **** 	 *	5 4 3
  58:main.c        **** 	 */
  59:main.c        **** 
  60:main.c        **** 	/* Protocol - Read 16-bit: 
  61:main.c        **** 	 * |CMD|  ADDR  |  Not Used  |       |           DATA          |
  62:main.c        **** 	 *  1 1 1      8 7          0         1                       0
  63:main.c        **** 	 *	5 4 3                             5
  64:main.c        **** 	 */
  65:main.c        ****     
  66:main.c        ****     cmd = (rxvalue >> 14) & 0x3;  // cmd = rdvalue[15:14]
  67:main.c        **** 	addr = (rxvalue >> 8) & 0x3f; // addr = rdvalue[13:8]
  68:main.c        ****     
  69:main.c        ****     switch (addr) {
  70:main.c        **** 		case 0x1:
  71:main.c        **** 			switch(cmd) {
  72:main.c        ****                 
  73:main.c        ****                 // Write status of bottle to DK8k
  74:main.c        **** 				case GET_STATUS:
  75:main.c        **** 					updateStatus(status);
  76:main.c        ****                     
  77:main.c        ****                     if(status != IN_PROCESS || status != VALID_TYPE) {
  78:main.c        ****                         status = DEFAULT;
  79:main.c        ****                     }
  80:main.c        **** 					break;
  81:main.c        ****                 
  82:main.c        ****                 // Registrate bottle
  83:main.c        **** 				case LOCATE_XY:
  84:main.c        ****                     updateStatus(IN_PROCESS);
  85:main.c        ****                     
  86:main.c        ****                     // Validate thickness of bottle neck
  87:main.c        ****                     writeToXY(cmd);
  88:main.c        **** 					break;
ARM GAS  C:\Users\BETTEF~1\AppData\Local\Temp\ccJ1jzjF.s 			page 3


  89:main.c        ****                 
  90:main.c        ****                 // Open bottle
  91:main.c        ****                 case OPEN_BOTTLE:
  92:main.c        ****                     updateStatus(IN_PROCESS);
  93:main.c        ****                     
  94:main.c        ****                     // Open bottle
  95:main.c        ****                     writeToXY(cmd);
  96:main.c        ****                     break;
  97:main.c        ****                 
  98:main.c        ****                 // Unidentified command
  99:main.c        ****                 default:
 100:main.c        ****                     updateStatus(WRONG_COMMAND);
 101:main.c        ****                     break;
 102:main.c        ****             }
 103:main.c        **** 			break;
 104:main.c        ****         
 105:main.c        ****         // Unidentified address
 106:main.c        **** 		default:
 107:main.c        **** 			updateStatus(WRONG_DEVICE);
 108:main.c        **** 			break;
 109:main.c        **** 	}
 110:main.c        **** }
 111:main.c        **** 
 112:main.c        **** CY_ISR(isr_2)
 113:main.c        **** {
 114:main.c        ****     uint8 fb;
 115:main.c        ****     fb = SPIM_1_ReadRxData();
 116:main.c        ****     SPIM_1_ClearRxBuffer();
 117:main.c        ****     
 118:main.c        ****     switch(fb) {
 119:main.c        ****         
 120:main.c        ****         // Thickness of bottle neck OK
 121:main.c        ****         case VALID_XY:
 122:main.c        ****             
 123:main.c        ****             // Position x-sensor to just under top of bottle
 124:main.c        ****             writeToZ(LOCATE_Z_1);
 125:main.c        ****             break;
 126:main.c        ****         
 127:main.c        ****         // X-sensor positioned to just under top of bottle
 128:main.c        ****         case MOVED_Z_1:
 129:main.c        ****             
 130:main.c        ****             // Validate top of bottle detected
 131:main.c        ****             writeToXY(LOCATE_Z_1);
 132:main.c        ****             break;
 133:main.c        ****         
 134:main.c        ****         // Top of bottle detected
 135:main.c        ****         case VALID_Z:
 136:main.c        ****             
 137:main.c        ****             // Position x-sensor to just over top of bottle
 138:main.c        ****             writeToZ(LOCATE_Z_2);
 139:main.c        ****             break;
 140:main.c        ****         
 141:main.c        ****         // X-sensor positioned to just over top of bottle
 142:main.c        ****         case MOVED_Z_2:
 143:main.c        ****             
 144:main.c        ****             // Validate no bottle detected
 145:main.c        ****             writeToXY(LOCATE_Z_2);
ARM GAS  C:\Users\BETTEF~1\AppData\Local\Temp\ccJ1jzjF.s 			page 4


 146:main.c        ****             break;
 147:main.c        ****         
 148:main.c        ****         // Valid bottle
 149:main.c        ****         case VALID_TYPE:
 150:main.c        ****             updateStatus(fb);
 151:main.c        ****             break;
 152:main.c        ****         
 153:main.c        ****         // Bottle open and ready to drink
 154:main.c        ****         case OPENING_SUCCESSFUL:
 155:main.c        ****             writeToZ(RESET);
 156:main.c        ****             break;
 157:main.c        ****         
 158:main.c        ****         // X-sensor positioned to start-position on z-axis
 159:main.c        ****         case RESET_Z:
 160:main.c        ****             
 161:main.c        ****             // Position x- and y-sensor to start-positions on respectively x- and y-axes
 162:main.c        ****             writeToXY(RESET);
 163:main.c        ****             break;
 164:main.c        ****         
 165:main.c        ****         // X- and y-sensor positioned to start-positions on respectively x- and y-axes
 166:main.c        ****         case RESET_XY_ON_SUCCESS:
 167:main.c        ****             
 168:main.c        ****             // Dispense of cork
 169:main.c        ****             writeToXY(DISPENSE_CORK);
 170:main.c        ****             break;
 171:main.c        ****         
 172:main.c        ****         // Cork dispensed of
 173:main.c        ****         case CORK_DISPENSED:
 174:main.c        ****             updateStatus(READY_TO_DRINK);
 175:main.c        ****             break;
 176:main.c        ****         
 177:main.c        ****         // No bottle detected
 178:main.c        ****         case NO_BOTTLE:
 179:main.c        ****             updateStatus(fb);
 180:main.c        ****             
 181:main.c        ****             // Position x- and y-sensor to start positions on respectively x- and y-axes
 182:main.c        ****             writeToXY(RESET);
 183:main.c        ****             break;
 184:main.c        ****         
 185:main.c        ****         // Invalid object inserted
 186:main.c        ****         case INVALID_XY:
 187:main.c        ****             updateStatus(INVALID_TYPE);
 188:main.c        ****             
 189:main.c        ****             // Position x- and y-sensor to start positions on respectively x- and y-axes
 190:main.c        ****             writeToXY(RESET);
 191:main.c        ****             break;
 192:main.c        ****         
 193:main.c        ****         // Invalid object inserted/Bottle open
 194:main.c        ****         case INVALID_TYPE:
 195:main.c        ****             updateStatus(fb);
 196:main.c        ****             
 197:main.c        ****             // Position x-sensor to start-position on z-axis
 198:main.c        ****             writeToZ(RESET);
 199:main.c        ****             break;
 200:main.c        ****         
 201:main.c        ****         default:
 202:main.c        ****             updateStatus(fb);
ARM GAS  C:\Users\BETTEF~1\AppData\Local\Temp\ccJ1jzjF.s 			page 5


 203:main.c        ****             break;
 204:main.c        ****     }
 205:main.c        **** }
 206:main.c        **** 
 207:main.c        **** int main()
 208:main.c        **** {
 209:main.c        ****     updateStatus(DEFAULT);
 210:main.c        ****     CyGlobalIntEnable;
 211:main.c        ****     
 212:main.c        ****     SPIS_1_Start();
 213:main.c        **** 	SPIS_1_EnableRxInt();
 214:main.c        ****     isr_1_StartEx(isr_1);
 215:main.c        **** 	SPIS_1_ClearFIFO();
 216:main.c        **** 	SPIS_1_ClearTxBuffer();
 217:main.c        ****     
 218:main.c        ****     SPIM_1_Start();
 219:main.c        ****     SPIM_1_EnableRxInt();
 220:main.c        ****     isr_2_StartEx(isr_2);
 221:main.c        **** 	SPIM_1_ClearFIFO();
 222:main.c        **** 	SPIM_1_ClearTxBuffer();
 223:main.c        **** 
 224:main.c        ****     for(;;)
 225:main.c        ****     {
 226:main.c        ****     }
 227:main.c        **** }
 228:main.c        **** 
 229:main.c        **** // Update status of master-PSoC/message to be sent to DK8k
 230:main.c        **** void updateStatus(uint8 stat)
 231:main.c        **** {
  27              		.loc 1 231 0
  28              		.cfi_startproc
  29              		@ args = 0, pretend = 0, frame = 0
  30              		@ frame_needed = 0, uses_anonymous_args = 0
  31              	.LVL0:
  32 0000 10B5     		push	{r4, lr}
  33              		.cfi_def_cfa_offset 8
  34              		.cfi_offset 4, -8
  35              		.cfi_offset 14, -4
 232:main.c        ****     status = stat;
  36              		.loc 1 232 0
  37 0002 044C     		ldr	r4, .L3
  38 0004 2070     		strb	r0, [r4]
 233:main.c        ****     SPIS_1_ClearTxBuffer();
  39              		.loc 1 233 0
  40 0006 FFF7FEFF 		bl	SPIS_1_ClearTxBuffer
  41              	.LVL1:
 234:main.c        ****     SPIS_1_WriteTxData(status);
  42              		.loc 1 234 0
  43 000a 2078     		ldrb	r0, [r4]	@ zero_extendqisi2
  44 000c FFF7FEFF 		bl	SPIS_1_WriteTxData
  45              	.LVL2:
  46 0010 10BD     		pop	{r4, pc}
  47              	.L4:
  48 0012 00BF     		.align	2
  49              	.L3:
  50 0014 00000000 		.word	status
  51              		.cfi_endproc
ARM GAS  C:\Users\BETTEF~1\AppData\Local\Temp\ccJ1jzjF.s 			page 6


  52              	.LFE66:
  53              		.size	updateStatus, .-updateStatus
  54              		.section	.text.main,"ax",%progbits
  55              		.align	2
  56              		.global	main
  57              		.thumb
  58              		.thumb_func
  59              		.type	main, %function
  60              	main:
  61              	.LFB65:
 208:main.c        ****     updateStatus(DEFAULT);
  62              		.loc 1 208 0
  63              		.cfi_startproc
  64              		@ Volatile: function does not return.
  65              		@ args = 0, pretend = 0, frame = 0
  66              		@ frame_needed = 0, uses_anonymous_args = 0
  67 0000 08B5     		push	{r3, lr}
  68              		.cfi_def_cfa_offset 8
  69              		.cfi_offset 3, -8
  70              		.cfi_offset 14, -4
 209:main.c        ****     CyGlobalIntEnable;
  71              		.loc 1 209 0
  72 0002 3020     		movs	r0, #48
  73 0004 FFF7FEFF 		bl	updateStatus
  74              	.LVL3:
 210:main.c        ****     
  75              		.loc 1 210 0
  76              	@ 210 "main.c" 1
  77 0008 62B6     		CPSIE   i
  78              	@ 0 "" 2
 212:main.c        **** 	SPIS_1_EnableRxInt();
  79              		.loc 1 212 0
  80              		.thumb
  81 000a FFF7FEFF 		bl	SPIS_1_Start
  82              	.LVL4:
 213:main.c        ****     isr_1_StartEx(isr_1);
  83              		.loc 1 213 0
  84 000e FFF7FEFF 		bl	SPIS_1_EnableRxInt
  85              	.LVL5:
 214:main.c        **** 	SPIS_1_ClearFIFO();
  86              		.loc 1 214 0
  87 0012 0948     		ldr	r0, .L8
  88 0014 FFF7FEFF 		bl	isr_1_StartEx
  89              	.LVL6:
 215:main.c        **** 	SPIS_1_ClearTxBuffer();
  90              		.loc 1 215 0
  91 0018 FFF7FEFF 		bl	SPIS_1_ClearFIFO
  92              	.LVL7:
 216:main.c        ****     
  93              		.loc 1 216 0
  94 001c FFF7FEFF 		bl	SPIS_1_ClearTxBuffer
  95              	.LVL8:
 218:main.c        ****     SPIM_1_EnableRxInt();
  96              		.loc 1 218 0
  97 0020 FFF7FEFF 		bl	SPIM_1_Start
  98              	.LVL9:
 219:main.c        ****     isr_2_StartEx(isr_2);
ARM GAS  C:\Users\BETTEF~1\AppData\Local\Temp\ccJ1jzjF.s 			page 7


  99              		.loc 1 219 0
 100 0024 FFF7FEFF 		bl	SPIM_1_EnableRxInt
 101              	.LVL10:
 220:main.c        **** 	SPIM_1_ClearFIFO();
 102              		.loc 1 220 0
 103 0028 0448     		ldr	r0, .L8+4
 104 002a FFF7FEFF 		bl	isr_2_StartEx
 105              	.LVL11:
 221:main.c        **** 	SPIM_1_ClearTxBuffer();
 106              		.loc 1 221 0
 107 002e FFF7FEFF 		bl	SPIM_1_ClearFIFO
 108              	.LVL12:
 222:main.c        **** 
 109              		.loc 1 222 0
 110 0032 FFF7FEFF 		bl	SPIM_1_ClearTxBuffer
 111              	.LVL13:
 112              	.L6:
 226:main.c        **** }
 113              		.loc 1 226 0 discriminator 1
 114 0036 FEE7     		b	.L6
 115              	.L9:
 116              		.align	2
 117              	.L8:
 118 0038 00000000 		.word	isr_1
 119 003c 00000000 		.word	isr_2
 120              		.cfi_endproc
 121              	.LFE65:
 122              		.size	main, .-main
 123              		.section	.text.writeToXY,"ax",%progbits
 124              		.align	2
 125              		.global	writeToXY
 126              		.thumb
 127              		.thumb_func
 128              		.type	writeToXY, %function
 129              	writeToXY:
 130              	.LFB67:
 235:main.c        **** }
 236:main.c        **** 
 237:main.c        **** // Write command to PSoC-slave 1
 238:main.c        **** void writeToXY(uint8 cmd)
 239:main.c        **** {
 131              		.loc 1 239 0
 132              		.cfi_startproc
 133              		@ args = 0, pretend = 0, frame = 0
 134              		@ frame_needed = 0, uses_anonymous_args = 0
 135              	.LVL14:
 136 0000 10B5     		push	{r4, lr}
 137              		.cfi_def_cfa_offset 8
 138              		.cfi_offset 4, -8
 139              		.cfi_offset 14, -4
 140 0002 0446     		mov	r4, r0
 240:main.c        ****     SPIM_1_ClearTxBuffer();
 141              		.loc 1 240 0
 142 0004 FFF7FEFF 		bl	SPIM_1_ClearTxBuffer
 143              	.LVL15:
 241:main.c        ****     SS_XY_Write(0);
 144              		.loc 1 241 0
ARM GAS  C:\Users\BETTEF~1\AppData\Local\Temp\ccJ1jzjF.s 			page 8


 145 0008 0020     		movs	r0, #0
 146 000a FFF7FEFF 		bl	SS_XY_Write
 147              	.LVL16:
 242:main.c        ****     SPIM_1_WriteTxData(cmd);
 148              		.loc 1 242 0
 149 000e 2046     		mov	r0, r4
 150 0010 FFF7FEFF 		bl	SPIM_1_WriteTxData
 151              	.LVL17:
 243:main.c        ****     SS_XY_Write(1);
 152              		.loc 1 243 0
 153 0014 0120     		movs	r0, #1
 154 0016 FFF7FEFF 		bl	SS_XY_Write
 155              	.LVL18:
 156 001a 10BD     		pop	{r4, pc}
 157              		.cfi_endproc
 158              	.LFE67:
 159              		.size	writeToXY, .-writeToXY
 160              		.section	.text.isr_1,"ax",%progbits
 161              		.align	2
 162              		.global	isr_1
 163              		.thumb
 164              		.thumb_func
 165              		.type	isr_1, %function
 166              	isr_1:
 167              	.LFB63:
  46:main.c        ****     uint16 rxvalue;
 168              		.loc 1 46 0
 169              		.cfi_startproc
 170              		@ args = 0, pretend = 0, frame = 0
 171              		@ frame_needed = 0, uses_anonymous_args = 0
 172 0000 38B5     		push	{r3, r4, r5, lr}
 173              		.cfi_def_cfa_offset 16
 174              		.cfi_offset 3, -16
 175              		.cfi_offset 4, -12
 176              		.cfi_offset 5, -8
 177              		.cfi_offset 14, -4
  51:main.c        ****     SPIS_1_ClearRxBuffer();
 178              		.loc 1 51 0
 179 0002 FFF7FEFF 		bl	SPIS_1_ReadRxData
 180              	.LVL19:
 181 0006 84B2     		uxth	r4, r0
 182              	.LVL20:
  52:main.c        ****     
 183              		.loc 1 52 0
 184 0008 FFF7FEFF 		bl	SPIS_1_ClearRxBuffer
 185              	.LVL21:
  66:main.c        **** 	addr = (rxvalue >> 8) & 0x3f; // addr = rdvalue[13:8]
 186              		.loc 1 66 0
 187 000c A50B     		lsrs	r5, r4, #14
 188              	.LVL22:
  67:main.c        ****     
 189              		.loc 1 67 0
 190 000e C4F30524 		ubfx	r4, r4, #8, #6
 191              	.LVL23:
  69:main.c        **** 		case 0x1:
 192              		.loc 1 69 0
 193 0012 012C     		cmp	r4, #1
ARM GAS  C:\Users\BETTEF~1\AppData\Local\Temp\ccJ1jzjF.s 			page 9


 194 0014 14D1     		bne	.L20
  71:main.c        ****                 
 195              		.loc 1 71 0
 196 0016 012D     		cmp	r5, #1
 197 0018 07D0     		beq	.L16
 198 001a 6DB9     		cbnz	r5, .L21
  75:main.c        ****                     
 199              		.loc 1 75 0
 200 001c 0A4C     		ldr	r4, .L23
 201              	.LVL24:
 202 001e 2078     		ldrb	r0, [r4]	@ zero_extendqisi2
 203 0020 FFF7FEFF 		bl	updateStatus
 204              	.LVL25:
  78:main.c        ****                     }
 205              		.loc 1 78 0
 206 0024 3023     		movs	r3, #48
 207 0026 2370     		strb	r3, [r4]
 208 0028 38BD     		pop	{r3, r4, r5, pc}
 209              	.LVL26:
 210              	.L16:
  84:main.c        ****                     
 211              		.loc 1 84 0
 212 002a 3320     		movs	r0, #51
 213 002c FFF7FEFF 		bl	updateStatus
 214              	.LVL27:
  87:main.c        **** 					break;
 215              		.loc 1 87 0
 216 0030 2846     		mov	r0, r5
 217 0032 FFF7FEFF 		bl	writeToXY
 218              	.LVL28:
  88:main.c        ****                 
 219              		.loc 1 88 0
 220 0036 38BD     		pop	{r3, r4, r5, pc}
 221              	.LVL29:
 222              	.L21:
 100:main.c        ****                     break;
 223              		.loc 1 100 0
 224 0038 3120     		movs	r0, #49
 225 003a FFF7FEFF 		bl	updateStatus
 226              	.LVL30:
 101:main.c        ****             }
 227              		.loc 1 101 0
 228 003e 38BD     		pop	{r3, r4, r5, pc}
 229              	.LVL31:
 230              	.L20:
 107:main.c        **** 			break;
 231              		.loc 1 107 0
 232 0040 3220     		movs	r0, #50
 233 0042 FFF7FEFF 		bl	updateStatus
 234              	.LVL32:
 235 0046 38BD     		pop	{r3, r4, r5, pc}
 236              	.LVL33:
 237              	.L24:
 238              		.align	2
 239              	.L23:
 240 0048 00000000 		.word	status
 241              		.cfi_endproc
ARM GAS  C:\Users\BETTEF~1\AppData\Local\Temp\ccJ1jzjF.s 			page 10


 242              	.LFE63:
 243              		.size	isr_1, .-isr_1
 244              		.section	.text.writeToZ,"ax",%progbits
 245              		.align	2
 246              		.global	writeToZ
 247              		.thumb
 248              		.thumb_func
 249              		.type	writeToZ, %function
 250              	writeToZ:
 251              	.LFB68:
 244:main.c        **** }
 245:main.c        **** 
 246:main.c        **** // Write command to PSoC-slave 2
 247:main.c        **** void writeToZ(uint8 cmd)
 248:main.c        **** {
 252              		.loc 1 248 0
 253              		.cfi_startproc
 254              		@ args = 0, pretend = 0, frame = 0
 255              		@ frame_needed = 0, uses_anonymous_args = 0
 256              	.LVL34:
 257 0000 10B5     		push	{r4, lr}
 258              		.cfi_def_cfa_offset 8
 259              		.cfi_offset 4, -8
 260              		.cfi_offset 14, -4
 261 0002 0446     		mov	r4, r0
 249:main.c        ****     SPIM_1_ClearTxBuffer();
 262              		.loc 1 249 0
 263 0004 FFF7FEFF 		bl	SPIM_1_ClearTxBuffer
 264              	.LVL35:
 250:main.c        ****     SS_Z_Write(0);
 265              		.loc 1 250 0
 266 0008 0020     		movs	r0, #0
 267 000a FFF7FEFF 		bl	SS_Z_Write
 268              	.LVL36:
 251:main.c        ****     SPIM_1_WriteTxData(cmd);
 269              		.loc 1 251 0
 270 000e 2046     		mov	r0, r4
 271 0010 FFF7FEFF 		bl	SPIM_1_WriteTxData
 272              	.LVL37:
 252:main.c        ****     SS_Z_Write(1);
 273              		.loc 1 252 0
 274 0014 0120     		movs	r0, #1
 275 0016 FFF7FEFF 		bl	SS_Z_Write
 276              	.LVL38:
 277 001a 10BD     		pop	{r4, pc}
 278              		.cfi_endproc
 279              	.LFE68:
 280              		.size	writeToZ, .-writeToZ
 281              		.section	.text.isr_2,"ax",%progbits
 282              		.align	2
 283              		.global	isr_2
 284              		.thumb
 285              		.thumb_func
 286              		.type	isr_2, %function
 287              	isr_2:
 288              	.LFB64:
 113:main.c        ****     uint8 fb;
ARM GAS  C:\Users\BETTEF~1\AppData\Local\Temp\ccJ1jzjF.s 			page 11


 289              		.loc 1 113 0
 290              		.cfi_startproc
 291              		@ args = 0, pretend = 0, frame = 0
 292              		@ frame_needed = 0, uses_anonymous_args = 0
 293 0000 10B5     		push	{r4, lr}
 294              		.cfi_def_cfa_offset 8
 295              		.cfi_offset 4, -8
 296              		.cfi_offset 14, -4
 115:main.c        ****     SPIM_1_ClearRxBuffer();
 297              		.loc 1 115 0
 298 0002 FFF7FEFF 		bl	SPIM_1_ReadRxData
 299              	.LVL39:
 300 0006 0446     		mov	r4, r0
 301              	.LVL40:
 116:main.c        ****     
 302              		.loc 1 116 0
 303 0008 FFF7FEFF 		bl	SPIM_1_ClearRxBuffer
 304              	.LVL41:
 118:main.c        ****         
 305              		.loc 1 118 0
 306 000c A4F11003 		sub	r3, r4, #16
 307 0010 252B     		cmp	r3, #37
 308 0012 4DD8     		bhi	.L28
 309 0014 DFE803F0 		tbb	[pc, r3]
 310              	.L30:
 311 0018 13       		.byte	(.L29-.L30)/2
 312 0019 17       		.byte	(.L31-.L30)/2
 313 001a 1F       		.byte	(.L32-.L30)/2
 314 001b 1B       		.byte	(.L33-.L30)/2
 315 001c 23       		.byte	(.L34-.L30)/2
 316 001d 27       		.byte	(.L35-.L30)/2
 317 001e 33       		.byte	(.L36-.L30)/2
 318 001f 4C       		.byte	(.L28-.L30)/2
 319 0020 4C       		.byte	(.L28-.L30)/2
 320 0021 4C       		.byte	(.L28-.L30)/2
 321 0022 4C       		.byte	(.L28-.L30)/2
 322 0023 4C       		.byte	(.L28-.L30)/2
 323 0024 4C       		.byte	(.L28-.L30)/2
 324 0025 4C       		.byte	(.L28-.L30)/2
 325 0026 4C       		.byte	(.L28-.L30)/2
 326 0027 4C       		.byte	(.L28-.L30)/2
 327 0028 3E       		.byte	(.L37-.L30)/2
 328 0029 45       		.byte	(.L38-.L30)/2
 329 002a 37       		.byte	(.L39-.L30)/2
 330 002b 4C       		.byte	(.L28-.L30)/2
 331 002c 4C       		.byte	(.L28-.L30)/2
 332 002d 4C       		.byte	(.L28-.L30)/2
 333 002e 4C       		.byte	(.L28-.L30)/2
 334 002f 4C       		.byte	(.L28-.L30)/2
 335 0030 4C       		.byte	(.L28-.L30)/2
 336 0031 4C       		.byte	(.L28-.L30)/2
 337 0032 4C       		.byte	(.L28-.L30)/2
 338 0033 4C       		.byte	(.L28-.L30)/2
 339 0034 4C       		.byte	(.L28-.L30)/2
 340 0035 4C       		.byte	(.L28-.L30)/2
 341 0036 4C       		.byte	(.L28-.L30)/2
 342 0037 4C       		.byte	(.L28-.L30)/2
ARM GAS  C:\Users\BETTEF~1\AppData\Local\Temp\ccJ1jzjF.s 			page 12


 343 0038 4C       		.byte	(.L28-.L30)/2
 344 0039 4C       		.byte	(.L28-.L30)/2
 345 003a 4C       		.byte	(.L28-.L30)/2
 346 003b 4C       		.byte	(.L28-.L30)/2
 347 003c 2B       		.byte	(.L40-.L30)/2
 348 003d 2F       		.byte	(.L41-.L30)/2
 349              		.p2align 1
 350              	.L29:
 124:main.c        ****             break;
 351              		.loc 1 124 0
 352 003e 0220     		movs	r0, #2
 353 0040 FFF7FEFF 		bl	writeToZ
 354              	.LVL42:
 125:main.c        ****         
 355              		.loc 1 125 0
 356 0044 10BD     		pop	{r4, pc}
 357              	.LVL43:
 358              	.L31:
 131:main.c        ****             break;
 359              		.loc 1 131 0
 360 0046 0220     		movs	r0, #2
 361 0048 FFF7FEFF 		bl	writeToXY
 362              	.LVL44:
 132:main.c        ****         
 363              		.loc 1 132 0
 364 004c 10BD     		pop	{r4, pc}
 365              	.LVL45:
 366              	.L33:
 138:main.c        ****             break;
 367              		.loc 1 138 0
 368 004e 0320     		movs	r0, #3
 369 0050 FFF7FEFF 		bl	writeToZ
 370              	.LVL46:
 139:main.c        ****         
 371              		.loc 1 139 0
 372 0054 10BD     		pop	{r4, pc}
 373              	.LVL47:
 374              	.L32:
 145:main.c        ****             break;
 375              		.loc 1 145 0
 376 0056 0320     		movs	r0, #3
 377 0058 FFF7FEFF 		bl	writeToXY
 378              	.LVL48:
 146:main.c        ****         
 379              		.loc 1 146 0
 380 005c 10BD     		pop	{r4, pc}
 381              	.LVL49:
 382              	.L34:
 150:main.c        ****             break;
 383              		.loc 1 150 0
 384 005e 2046     		mov	r0, r4
 385 0060 FFF7FEFF 		bl	updateStatus
 386              	.LVL50:
 151:main.c        ****         
 387              		.loc 1 151 0
 388 0064 10BD     		pop	{r4, pc}
 389              	.LVL51:
ARM GAS  C:\Users\BETTEF~1\AppData\Local\Temp\ccJ1jzjF.s 			page 13


 390              	.L35:
 155:main.c        ****             break;
 391              		.loc 1 155 0
 392 0066 0520     		movs	r0, #5
 393 0068 FFF7FEFF 		bl	writeToZ
 394              	.LVL52:
 156:main.c        ****         
 395              		.loc 1 156 0
 396 006c 10BD     		pop	{r4, pc}
 397              	.LVL53:
 398              	.L40:
 162:main.c        ****             break;
 399              		.loc 1 162 0
 400 006e 0520     		movs	r0, #5
 401 0070 FFF7FEFF 		bl	writeToXY
 402              	.LVL54:
 163:main.c        ****         
 403              		.loc 1 163 0
 404 0074 10BD     		pop	{r4, pc}
 405              	.LVL55:
 406              	.L41:
 169:main.c        ****             break;
 407              		.loc 1 169 0
 408 0076 0620     		movs	r0, #6
 409 0078 FFF7FEFF 		bl	writeToXY
 410              	.LVL56:
 170:main.c        ****         
 411              		.loc 1 170 0
 412 007c 10BD     		pop	{r4, pc}
 413              	.LVL57:
 414              	.L36:
 174:main.c        ****             break;
 415              		.loc 1 174 0
 416 007e 1720     		movs	r0, #23
 417 0080 FFF7FEFF 		bl	updateStatus
 418              	.LVL58:
 175:main.c        ****         
 419              		.loc 1 175 0
 420 0084 10BD     		pop	{r4, pc}
 421              	.LVL59:
 422              	.L39:
 179:main.c        ****             
 423              		.loc 1 179 0
 424 0086 2046     		mov	r0, r4
 425 0088 FFF7FEFF 		bl	updateStatus
 426              	.LVL60:
 182:main.c        ****             break;
 427              		.loc 1 182 0
 428 008c 0520     		movs	r0, #5
 429 008e FFF7FEFF 		bl	writeToXY
 430              	.LVL61:
 183:main.c        ****         
 431              		.loc 1 183 0
 432 0092 10BD     		pop	{r4, pc}
 433              	.LVL62:
 434              	.L37:
 187:main.c        ****             
ARM GAS  C:\Users\BETTEF~1\AppData\Local\Temp\ccJ1jzjF.s 			page 14


 435              		.loc 1 187 0
 436 0094 2120     		movs	r0, #33
 437 0096 FFF7FEFF 		bl	updateStatus
 438              	.LVL63:
 190:main.c        ****             break;
 439              		.loc 1 190 0
 440 009a 0520     		movs	r0, #5
 441 009c FFF7FEFF 		bl	writeToXY
 442              	.LVL64:
 191:main.c        ****         
 443              		.loc 1 191 0
 444 00a0 10BD     		pop	{r4, pc}
 445              	.LVL65:
 446              	.L38:
 195:main.c        ****             
 447              		.loc 1 195 0
 448 00a2 2046     		mov	r0, r4
 449 00a4 FFF7FEFF 		bl	updateStatus
 450              	.LVL66:
 198:main.c        ****             break;
 451              		.loc 1 198 0
 452 00a8 0520     		movs	r0, #5
 453 00aa FFF7FEFF 		bl	writeToZ
 454              	.LVL67:
 199:main.c        ****         
 455              		.loc 1 199 0
 456 00ae 10BD     		pop	{r4, pc}
 457              	.LVL68:
 458              	.L28:
 202:main.c        ****             break;
 459              		.loc 1 202 0
 460 00b0 2046     		mov	r0, r4
 461 00b2 FFF7FEFF 		bl	updateStatus
 462              	.LVL69:
 463 00b6 10BD     		pop	{r4, pc}
 464              		.cfi_endproc
 465              	.LFE64:
 466              		.size	isr_2, .-isr_2
 467              		.comm	status,1,1
 468              		.text
 469              	.Letext0:
 470              		.file 2 "c:\\program files (x86)\\cypress\\psoc creator\\4.0\\psoc creator\\import\\gnu\\arm\\4.9.
 471              		.file 3 "c:\\program files (x86)\\cypress\\psoc creator\\4.0\\psoc creator\\import\\gnu\\arm\\4.9.
 472              		.file 4 "Generated_Source\\PSoC5/cytypes.h"
 473              		.file 5 "Generated_Source\\PSoC5/core_cm3.h"
 474              		.file 6 "Generated_Source\\PSoC5/SPIS_1.h"
 475              		.file 7 "Generated_Source\\PSoC5/isr_1.h"
 476              		.file 8 "Generated_Source\\PSoC5/SPIM_1.h"
 477              		.file 9 "Generated_Source\\PSoC5/isr_2.h"
 478              		.file 10 "Generated_Source\\PSoC5/SS_XY.h"
 479              		.file 11 "Generated_Source\\PSoC5/SS_Z.h"