ARM GAS  C:\Users\BETTEF~1\AppData\Local\Temp\cc8eQM4X.s 			page 1


   1              		.syntax unified
   2              		.cpu cortex-m3
   3              		.fpu softvfp
   4              		.eabi_attribute 20, 1
   5              		.eabi_attribute 21, 1
   6              		.eabi_attribute 23, 3
   7              		.eabi_attribute 24, 1
   8              		.eabi_attribute 25, 1
   9              		.eabi_attribute 26, 1
  10              		.eabi_attribute 30, 1
  11              		.eabi_attribute 34, 1
  12              		.eabi_attribute 18, 4
  13              		.thumb
  14              		.file	"main.c"
  15              		.text
  16              	.Ltext0:
  17              		.cfi_sections	.debug_frame
  18              		.section	.text.isr_RxD,"ax",%progbits
  19              		.align	2
  20              		.global	isr_RxD
  21              		.thumb
  22              		.thumb_func
  23              		.type	isr_RxD, %function
  24              	isr_RxD:
  25              	.LFB63:
  26              		.file 1 "main.c"
   1:main.c        **** #include "project.h"
   2:main.c        **** 
   3:main.c        **** uint16 zStepCount = 0;
   4:main.c        **** uint8 enabled = 0;
   5:main.c        **** uint8 zDirection;
   6:main.c        **** 
   7:main.c        **** void moveC();
   8:main.c        **** void moveCC();
   9:main.c        **** void stop();
  10:main.c        **** 
  11:main.c        **** enum SPI_protocol {
  12:main.c        ****     
  13:main.c        ****     // Command from PSoC-master to -slave
  14:main.c        ****     MOVE_CLOCKWISE = 0x01,
  15:main.c        ****     MOVE_COUNTERCLOCKWISE = 0x02,
  16:main.c        ****     STOP_MOVING = 0x03,
  17:main.c        **** };
  18:main.c        **** 
  19:main.c        **** enum bottleInfo {
  20:main.c        ****     BELOW_TOP = 10,             // Random value
  21:main.c        ****     ABOVE_TOP = 11,             // Random value
  22:main.c        **** };
  23:main.c        **** 
  24:main.c        **** enum operation {
  25:main.c        ****     CLOCK = 1,
  26:main.c        ****     COUNTERCLOCK = 2,
  27:main.c        ****     STOP = 3,
  28:main.c        **** };
  29:main.c        **** 
  30:main.c        **** enum dir
  31:main.c        **** {
ARM GAS  C:\Users\BETTEF~1\AppData\Local\Temp\cc8eQM4X.s 			page 2


  32:main.c        ****     FW = 0,
  33:main.c        ****     BW = 1,
  34:main.c        **** };
  35:main.c        **** 
  36:main.c        **** CY_ISR(isr_RxD)
  37:main.c        **** {
  27              		.loc 1 37 0
  28              		.cfi_startproc
  29              		@ args = 0, pretend = 0, frame = 0
  30              		@ frame_needed = 0, uses_anonymous_args = 0
  31 0000 10B5     		push	{r4, lr}
  32              		.cfi_def_cfa_offset 8
  33              		.cfi_offset 4, -8
  34              		.cfi_offset 14, -4
  38:main.c        ****     uint8 rxCmd;
  39:main.c        ****     uint8 enpin;
  40:main.c        ****     enpin = Enable_1_Read();
  35              		.loc 1 40 0
  36 0002 FFF7FEFF 		bl	Enable_1_Read
  37              	.LVL0:
  38 0006 0446     		mov	r4, r0
  39              	.LVL1:
  41:main.c        ****     UART_1_ClearTxBuffer();
  40              		.loc 1 41 0
  41 0008 FFF7FEFF 		bl	UART_1_ClearTxBuffer
  42              	.LVL2:
  42:main.c        ****     UART_1_WriteTxData(enpin);
  43              		.loc 1 42 0
  44 000c 2046     		mov	r0, r4
  45 000e FFF7FEFF 		bl	UART_1_WriteTxData
  46              	.LVL3:
  43:main.c        ****     zDirection = 3;
  47              		.loc 1 43 0
  48 0012 0322     		movs	r2, #3
  49 0014 104B     		ldr	r3, .L7
  50 0016 1A70     		strb	r2, [r3]
  44:main.c        ****     
  45:main.c        ****     rxCmd = UART_1_ReadRxData();
  51              		.loc 1 45 0
  52 0018 FFF7FEFF 		bl	UART_1_ReadRxData
  53              	.LVL4:
  54 001c 0446     		mov	r4, r0
  55              	.LVL5:
  46:main.c        ****     UART_1_ClearRxBuffer();
  56              		.loc 1 46 0
  57 001e FFF7FEFF 		bl	UART_1_ClearRxBuffer
  58              	.LVL6:
  47:main.c        ****     
  48:main.c        ****     rxCmd -= 0x30;
  59              		.loc 1 48 0
  60 0022 A4F13000 		sub	r0, r4, #48
  61 0026 C0B2     		uxtb	r0, r0
  62              	.LVL7:
  49:main.c        ****     
  50:main.c        ****     switch(rxCmd) {
  63              		.loc 1 50 0
  64 0028 0228     		cmp	r0, #2
ARM GAS  C:\Users\BETTEF~1\AppData\Local\Temp\cc8eQM4X.s 			page 3


  65 002a 09D0     		beq	.L3
  66 002c 0328     		cmp	r0, #3
  67 002e 0ED0     		beq	.L4
  68 0030 0128     		cmp	r0, #1
  69 0032 0FD1     		bne	.L1
  51:main.c        ****         
  52:main.c        ****         // Position x-sensor to just under top of bottle
  53:main.c        ****         case MOVE_CLOCKWISE:
  54:main.c        ****             zDirection = BW;
  70              		.loc 1 54 0
  71 0034 0123     		movs	r3, #1
  72 0036 084A     		ldr	r2, .L7
  73 0038 1370     		strb	r3, [r2]
  55:main.c        ****             enabled = CLOCK;
  74              		.loc 1 55 0
  75 003a 084A     		ldr	r2, .L7+4
  76 003c 1370     		strb	r3, [r2]
  56:main.c        ****             break;
  77              		.loc 1 56 0
  78 003e 10BD     		pop	{r4, pc}
  79              	.L3:
  57:main.c        ****         
  58:main.c        ****         // Position x-sensor to just over top of bottle
  59:main.c        ****         case MOVE_COUNTERCLOCKWISE:
  60:main.c        ****             zDirection = FW;
  80              		.loc 1 60 0
  81 0040 0022     		movs	r2, #0
  82 0042 054B     		ldr	r3, .L7
  83 0044 1A70     		strb	r2, [r3]
  61:main.c        ****             enabled = COUNTERCLOCK;
  84              		.loc 1 61 0
  85 0046 0222     		movs	r2, #2
  86 0048 044B     		ldr	r3, .L7+4
  87 004a 1A70     		strb	r2, [r3]
  62:main.c        ****             break;
  88              		.loc 1 62 0
  89 004c 10BD     		pop	{r4, pc}
  90              	.L4:
  63:main.c        ****         
  64:main.c        ****         // Position x- and y-sensor to start-positions on respectively x- and y-axes
  65:main.c        ****         case STOP_MOVING:
  66:main.c        ****             enabled = STOP;
  91              		.loc 1 66 0
  92 004e 0322     		movs	r2, #3
  93 0050 024B     		ldr	r3, .L7+4
  94 0052 1A70     		strb	r2, [r3]
  95              	.L1:
  96 0054 10BD     		pop	{r4, pc}
  97              	.L8:
  98 0056 00BF     		.align	2
  99              	.L7:
 100 0058 00000000 		.word	zDirection
 101 005c 00000000 		.word	.LANCHOR0
 102              		.cfi_endproc
 103              	.LFE63:
 104              		.size	isr_RxD, .-isr_RxD
 105              		.section	.text.moveC,"ax",%progbits
ARM GAS  C:\Users\BETTEF~1\AppData\Local\Temp\cc8eQM4X.s 			page 4


 106              		.align	2
 107              		.global	moveC
 108              		.thumb
 109              		.thumb_func
 110              		.type	moveC, %function
 111              	moveC:
 112              	.LFB65:
  67:main.c        ****             break;
  68:main.c        ****             
  69:main.c        ****         default:
  70:main.c        ****             break;
  71:main.c        ****     }
  72:main.c        **** }
  73:main.c        **** 
  74:main.c        **** /*CY_ISR(pwm_isr_1)
  75:main.c        **** {
  76:main.c        ****     PWM_1_ReadStatusRegister();
  77:main.c        ****     uint8 step;
  78:main.c        ****     step = stepindex_1_Read();
  79:main.c        ****     if(zDirection == FW) {
  80:main.c        ****         if(step >= 0x01) {
  81:main.c        ****             stepindex_1_Write(0x00);
  82:main.c        ****         }
  83:main.c        ****         else {
  84:main.c        ****             stepindex_1_Write(step + 0x01);
  85:main.c        ****         }
  86:main.c        ****         ++zStepCount;
  87:main.c        ****     }
  88:main.c        ****     else { //direction == BW
  89:main.c        ****         if(step <= 0x00) {
  90:main.c        ****             stepindex_1_Write(0x01);
  91:main.c        ****         }
  92:main.c        ****         else {
  93:main.c        ****             stepindex_1_Write(step-0x01);
  94:main.c        ****         }
  95:main.c        ****         --zStepCount;
  96:main.c        ****     }
  97:main.c        ****     //CyDelay(2);
  98:main.c        **** }*/
  99:main.c        **** 
 100:main.c        **** int main(void)
 101:main.c        **** {
 102:main.c        ****     CyGlobalIntEnable;
 103:main.c        **** 
 104:main.c        ****     UART_1_Start();
 105:main.c        ****     isr_RxD_StartEx(isr_RxD);
 106:main.c        ****     stepindex_1_Write(0b01); //Start p책 1, fordi fullstep.
 107:main.c        **** 
 108:main.c        ****     for(;;)
 109:main.c        ****     {
 110:main.c        ****         switch(enabled) {
 111:main.c        ****             
 112:main.c        ****             // Position x-sensor to just under top of bottle
 113:main.c        ****             case CLOCK:
 114:main.c        ****                 moveC();
 115:main.c        ****                 break;
 116:main.c        ****             
ARM GAS  C:\Users\BETTEF~1\AppData\Local\Temp\cc8eQM4X.s 			page 5


 117:main.c        ****             // Position x-sensor to just over top of bottle
 118:main.c        ****             case COUNTERCLOCK:
 119:main.c        ****                 moveCC();
 120:main.c        ****                 break;
 121:main.c        ****             
 122:main.c        ****             // Reset to start-position
 123:main.c        ****             case STOP:
 124:main.c        ****                 stop();
 125:main.c        ****                 break;
 126:main.c        ****             
 127:main.c        ****             default:
 128:main.c        ****                 break;
 129:main.c        ****         }
 130:main.c        ****     }
 131:main.c        ****     
 132:main.c        ****     return 0;
 133:main.c        **** }
 134:main.c        **** 
 135:main.c        **** void moveC()
 136:main.c        **** {
 113              		.loc 1 136 0
 114              		.cfi_startproc
 115              		@ args = 0, pretend = 0, frame = 0
 116              		@ frame_needed = 0, uses_anonymous_args = 0
 117 0000 08B5     		push	{r3, lr}
 118              		.cfi_def_cfa_offset 8
 119              		.cfi_offset 3, -8
 120              		.cfi_offset 14, -4
 137:main.c        ****     /*zDirection = FW;
 138:main.c        ****     
 139:main.c        ****     Enable_1_Write(1);
 140:main.c        ****     
 141:main.c        ****     //PWM_1_Start();
 142:main.c        ****     //pwm_isr_1_StartEx(pwm_isr_1);
 143:main.c        ****     stepindex_1_Write(1); //Start p책 1, fordi fullstep.*/
 144:main.c        ****     
 145:main.c        ****     //zDirection = BW;
 146:main.c        ****     uint8 step;
 147:main.c        ****     
 148:main.c        ****     Enable_1_Write(1);
 121              		.loc 1 148 0
 122 0002 0120     		movs	r0, #1
 123 0004 FFF7FEFF 		bl	Enable_1_Write
 124              	.LVL8:
 149:main.c        ****     while(zDirection == BW) {
 125              		.loc 1 149 0
 126 0008 11E0     		b	.L10
 127              	.L13:
 150:main.c        ****         
 151:main.c        ****         step = stepindex_1_Read();
 128              		.loc 1 151 0
 129 000a FFF7FEFF 		bl	stepindex_1_Read
 130              	.LVL9:
 152:main.c        ****         if(step <= 0b00) {
 131              		.loc 1 152 0
 132 000e 18B9     		cbnz	r0, .L11
 153:main.c        ****             stepindex_1_Write(0b11);
ARM GAS  C:\Users\BETTEF~1\AppData\Local\Temp\cc8eQM4X.s 			page 6


 133              		.loc 1 153 0
 134 0010 0320     		movs	r0, #3
 135              	.LVL10:
 136 0012 FFF7FEFF 		bl	stepindex_1_Write
 137              	.LVL11:
 138 0016 03E0     		b	.L12
 139              	.LVL12:
 140              	.L11:
 154:main.c        ****         }
 155:main.c        ****         else {
 156:main.c        ****             stepindex_1_Write(step - 0b01);
 141              		.loc 1 156 0
 142 0018 0138     		subs	r0, r0, #1
 143              	.LVL13:
 144 001a C0B2     		uxtb	r0, r0
 145 001c FFF7FEFF 		bl	stepindex_1_Write
 146              	.LVL14:
 147              	.L12:
 157:main.c        ****         }
 158:main.c        ****         --zStepCount;
 148              		.loc 1 158 0
 149 0020 074A     		ldr	r2, .L15
 150 0022 5388     		ldrh	r3, [r2, #2]
 151 0024 013B     		subs	r3, r3, #1
 152 0026 5380     		strh	r3, [r2, #2]	@ movhi
 159:main.c        ****         CyDelay(2);
 153              		.loc 1 159 0
 154 0028 0220     		movs	r0, #2
 155 002a FFF7FEFF 		bl	CyDelay
 156              	.LVL15:
 157              	.L10:
 149:main.c        ****         
 158              		.loc 1 149 0
 159 002e 054B     		ldr	r3, .L15+4
 160 0030 1B78     		ldrb	r3, [r3]	@ zero_extendqisi2
 161 0032 012B     		cmp	r3, #1
 162 0034 E9D0     		beq	.L13
 160:main.c        ****     }
 161:main.c        ****     Enable_1_Write(0);
 163              		.loc 1 161 0
 164 0036 0020     		movs	r0, #0
 165 0038 FFF7FEFF 		bl	Enable_1_Write
 166              	.LVL16:
 167 003c 08BD     		pop	{r3, pc}
 168              	.L16:
 169 003e 00BF     		.align	2
 170              	.L15:
 171 0040 00000000 		.word	.LANCHOR0
 172 0044 00000000 		.word	zDirection
 173              		.cfi_endproc
 174              	.LFE65:
 175              		.size	moveC, .-moveC
 176              		.section	.text.moveCC,"ax",%progbits
 177              		.align	2
 178              		.global	moveCC
 179              		.thumb
 180              		.thumb_func
ARM GAS  C:\Users\BETTEF~1\AppData\Local\Temp\cc8eQM4X.s 			page 7


 181              		.type	moveCC, %function
 182              	moveCC:
 183              	.LFB66:
 162:main.c        **** }
 163:main.c        **** 
 164:main.c        **** void moveCC()
 165:main.c        **** {
 184              		.loc 1 165 0
 185              		.cfi_startproc
 186              		@ args = 0, pretend = 0, frame = 0
 187              		@ frame_needed = 0, uses_anonymous_args = 0
 188 0000 08B5     		push	{r3, lr}
 189              		.cfi_def_cfa_offset 8
 190              		.cfi_offset 3, -8
 191              		.cfi_offset 14, -4
 166:main.c        ****     //zDirection = FW;
 167:main.c        ****     uint8 step;
 168:main.c        ****     
 169:main.c        ****     Enable_1_Write(1);
 192              		.loc 1 169 0
 193 0002 0120     		movs	r0, #1
 194 0004 FFF7FEFF 		bl	Enable_1_Write
 195              	.LVL17:
 170:main.c        ****     stepindex_1_Write(0b01); //Start p책 1, fordi fullstep.
 196              		.loc 1 170 0
 197 0008 0120     		movs	r0, #1
 198 000a FFF7FEFF 		bl	stepindex_1_Write
 199              	.LVL18:
 171:main.c        ****     while(zDirection == FW) {
 200              		.loc 1 171 0
 201 000e 12E0     		b	.L18
 202              	.L21:
 172:main.c        ****         
 173:main.c        ****         step = stepindex_1_Read();
 203              		.loc 1 173 0
 204 0010 FFF7FEFF 		bl	stepindex_1_Read
 205              	.LVL19:
 174:main.c        ****         if(step >= 0b11) {
 206              		.loc 1 174 0
 207 0014 0228     		cmp	r0, #2
 208 0016 03D9     		bls	.L19
 175:main.c        ****             stepindex_1_Write(0b00);
 209              		.loc 1 175 0
 210 0018 0020     		movs	r0, #0
 211              	.LVL20:
 212 001a FFF7FEFF 		bl	stepindex_1_Write
 213              	.LVL21:
 214 001e 03E0     		b	.L20
 215              	.LVL22:
 216              	.L19:
 176:main.c        ****         }
 177:main.c        ****         else {
 178:main.c        ****             stepindex_1_Write(step + 0b01);
 217              		.loc 1 178 0
 218 0020 0130     		adds	r0, r0, #1
 219              	.LVL23:
 220 0022 C0B2     		uxtb	r0, r0
ARM GAS  C:\Users\BETTEF~1\AppData\Local\Temp\cc8eQM4X.s 			page 8


 221 0024 FFF7FEFF 		bl	stepindex_1_Write
 222              	.LVL24:
 223              	.L20:
 179:main.c        ****         }
 180:main.c        ****         ++zStepCount;
 224              		.loc 1 180 0
 225 0028 074A     		ldr	r2, .L23
 226 002a 5388     		ldrh	r3, [r2, #2]
 227 002c 0133     		adds	r3, r3, #1
 228 002e 5380     		strh	r3, [r2, #2]	@ movhi
 181:main.c        ****         CyDelay(2);
 229              		.loc 1 181 0
 230 0030 0220     		movs	r0, #2
 231 0032 FFF7FEFF 		bl	CyDelay
 232              	.LVL25:
 233              	.L18:
 171:main.c        ****         
 234              		.loc 1 171 0
 235 0036 054B     		ldr	r3, .L23+4
 236 0038 1B78     		ldrb	r3, [r3]	@ zero_extendqisi2
 237 003a 002B     		cmp	r3, #0
 238 003c E8D0     		beq	.L21
 182:main.c        ****     }
 183:main.c        ****     Enable_1_Write(0);
 239              		.loc 1 183 0
 240 003e 0020     		movs	r0, #0
 241 0040 FFF7FEFF 		bl	Enable_1_Write
 242              	.LVL26:
 243 0044 08BD     		pop	{r3, pc}
 244              	.L24:
 245 0046 00BF     		.align	2
 246              	.L23:
 247 0048 00000000 		.word	.LANCHOR0
 248 004c 00000000 		.word	zDirection
 249              		.cfi_endproc
 250              	.LFE66:
 251              		.size	moveCC, .-moveCC
 252              		.section	.text.stop,"ax",%progbits
 253              		.align	2
 254              		.global	stop
 255              		.thumb
 256              		.thumb_func
 257              		.type	stop, %function
 258              	stop:
 259              	.LFB67:
 184:main.c        **** }
 185:main.c        **** 
 186:main.c        **** void stop()
 187:main.c        **** {
 260              		.loc 1 187 0
 261              		.cfi_startproc
 262              		@ args = 0, pretend = 0, frame = 0
 263              		@ frame_needed = 0, uses_anonymous_args = 0
 264 0000 08B5     		push	{r3, lr}
 265              		.cfi_def_cfa_offset 8
 266              		.cfi_offset 3, -8
 267              		.cfi_offset 14, -4
ARM GAS  C:\Users\BETTEF~1\AppData\Local\Temp\cc8eQM4X.s 			page 9


 188:main.c        ****     //PWM_1_Stop();
 189:main.c        ****     Enable_1_Write(0);
 268              		.loc 1 189 0
 269 0002 0020     		movs	r0, #0
 270 0004 FFF7FEFF 		bl	Enable_1_Write
 271              	.LVL27:
 272 0008 08BD     		pop	{r3, pc}
 273              		.cfi_endproc
 274              	.LFE67:
 275              		.size	stop, .-stop
 276 000a 00BF     		.section	.text.main,"ax",%progbits
 277              		.align	2
 278              		.global	main
 279              		.thumb
 280              		.thumb_func
 281              		.type	main, %function
 282              	main:
 283              	.LFB64:
 101:main.c        ****     CyGlobalIntEnable;
 284              		.loc 1 101 0
 285              		.cfi_startproc
 286              		@ Volatile: function does not return.
 287              		@ args = 0, pretend = 0, frame = 0
 288              		@ frame_needed = 0, uses_anonymous_args = 0
 289 0000 08B5     		push	{r3, lr}
 290              		.cfi_def_cfa_offset 8
 291              		.cfi_offset 3, -8
 292              		.cfi_offset 14, -4
 102:main.c        **** 
 293              		.loc 1 102 0
 294              	@ 102 "main.c" 1
 295 0002 62B6     		CPSIE   i
 296              	@ 0 "" 2
 104:main.c        ****     isr_RxD_StartEx(isr_RxD);
 297              		.loc 1 104 0
 298              		.thumb
 299 0004 FFF7FEFF 		bl	UART_1_Start
 300              	.LVL28:
 105:main.c        ****     stepindex_1_Write(0b01); //Start p책 1, fordi fullstep.
 301              		.loc 1 105 0
 302 0008 0B48     		ldr	r0, .L35
 303 000a FFF7FEFF 		bl	isr_RxD_StartEx
 304              	.LVL29:
 106:main.c        **** 
 305              		.loc 1 106 0
 306 000e 0120     		movs	r0, #1
 307 0010 FFF7FEFF 		bl	stepindex_1_Write
 308              	.LVL30:
 309              	.L29:
 110:main.c        ****             
 310              		.loc 1 110 0
 311 0014 094B     		ldr	r3, .L35+4
 312 0016 1B78     		ldrb	r3, [r3]	@ zero_extendqisi2
 313 0018 022B     		cmp	r3, #2
 314 001a 06D0     		beq	.L30
 315 001c 032B     		cmp	r3, #3
 316 001e 07D0     		beq	.L31
ARM GAS  C:\Users\BETTEF~1\AppData\Local\Temp\cc8eQM4X.s 			page 10


 317 0020 012B     		cmp	r3, #1
 318 0022 F7D1     		bne	.L29
 114:main.c        ****                 break;
 319              		.loc 1 114 0
 320 0024 FFF7FEFF 		bl	moveC
 321              	.LVL31:
 115:main.c        ****             
 322              		.loc 1 115 0
 323 0028 F4E7     		b	.L29
 324              	.L30:
 119:main.c        ****                 break;
 325              		.loc 1 119 0
 326 002a FFF7FEFF 		bl	moveCC
 327              	.LVL32:
 120:main.c        ****             
 328              		.loc 1 120 0
 329 002e F1E7     		b	.L29
 330              	.L31:
 124:main.c        ****                 break;
 331              		.loc 1 124 0
 332 0030 FFF7FEFF 		bl	stop
 333              	.LVL33:
 125:main.c        ****             
 334              		.loc 1 125 0
 335 0034 EEE7     		b	.L29
 336              	.L36:
 337 0036 00BF     		.align	2
 338              	.L35:
 339 0038 00000000 		.word	isr_RxD
 340 003c 00000000 		.word	.LANCHOR0
 341              		.cfi_endproc
 342              	.LFE64:
 343              		.size	main, .-main
 344              		.comm	zDirection,1,1
 345              		.global	enabled
 346              		.global	zStepCount
 347              		.bss
 348              		.align	1
 349              		.set	.LANCHOR0,. + 0
 350              		.type	enabled, %object
 351              		.size	enabled, 1
 352              	enabled:
 353 0000 00       		.space	1
 354 0001 00       		.space	1
 355              		.type	zStepCount, %object
 356              		.size	zStepCount, 2
 357              	zStepCount:
 358 0002 0000     		.space	2
 359              		.text
 360              	.Letext0:
 361              		.file 2 "c:\\program files (x86)\\cypress\\psoc creator\\4.0\\psoc creator\\import\\gnu\\arm\\4.9.
 362              		.file 3 "c:\\program files (x86)\\cypress\\psoc creator\\4.0\\psoc creator\\import\\gnu\\arm\\4.9.
 363              		.file 4 "Generated_Source\\PSoC5/cytypes.h"
 364              		.file 5 "Generated_Source\\PSoC5/core_cm3.h"
 365              		.file 6 "Generated_Source\\PSoC5/Enable_1.h"
 366              		.file 7 "Generated_Source\\PSoC5/UART_1.h"
 367              		.file 8 "Generated_Source\\PSoC5/stepindex_1.h"
ARM GAS  C:\Users\BETTEF~1\AppData\Local\Temp\cc8eQM4X.s 			page 11


 368              		.file 9 "Generated_Source\\PSoC5/CyLib.h"
 369              		.file 10 "Generated_Source\\PSoC5/isr_RxD.h"