ARM GAS  C:\Users\BETTEF~1\AppData\Local\Temp\cc9D5276.s 			page 1


   1              		.syntax unified
   2              		.cpu cortex-m3
   3              		.fpu softvfp
   4              		.eabi_attribute 20, 1
   5              		.eabi_attribute 21, 1
   6              		.eabi_attribute 23, 3
   7              		.eabi_attribute 24, 1
   8              		.eabi_attribute 25, 1
   9              		.eabi_attribute 26, 1
  10              		.eabi_attribute 30, 1
  11              		.eabi_attribute 34, 1
  12              		.eabi_attribute 18, 4
  13              		.thumb
  14              		.file	"Coils_1.c"
  15              		.text
  16              	.Ltext0:
  17              		.cfi_sections	.debug_frame
  18              		.section	.text.Coils_1_Write,"ax",%progbits
  19              		.align	2
  20              		.global	Coils_1_Write
  21              		.thumb
  22              		.thumb_func
  23              		.type	Coils_1_Write, %function
  24              	Coils_1_Write:
  25              	.LFB0:
  26              		.file 1 "Generated_Source\\PSoC5\\Coils_1.c"
   1:Generated_Source\PSoC5/Coils_1.c **** /*******************************************************************************
   2:Generated_Source\PSoC5/Coils_1.c **** * File Name: Coils_1.c  
   3:Generated_Source\PSoC5/Coils_1.c **** * Version 2.20
   4:Generated_Source\PSoC5/Coils_1.c **** *
   5:Generated_Source\PSoC5/Coils_1.c **** * Description:
   6:Generated_Source\PSoC5/Coils_1.c **** *  This file contains API to enable firmware control of a Pins component.
   7:Generated_Source\PSoC5/Coils_1.c **** *
   8:Generated_Source\PSoC5/Coils_1.c **** * Note:
   9:Generated_Source\PSoC5/Coils_1.c **** *
  10:Generated_Source\PSoC5/Coils_1.c **** ********************************************************************************
  11:Generated_Source\PSoC5/Coils_1.c **** * Copyright 2008-2015, Cypress Semiconductor Corporation.  All rights reserved.
  12:Generated_Source\PSoC5/Coils_1.c **** * You may use this file only in accordance with the license, terms, conditions, 
  13:Generated_Source\PSoC5/Coils_1.c **** * disclaimers, and limitations in the end user license agreement accompanying 
  14:Generated_Source\PSoC5/Coils_1.c **** * the software package with which this file was provided.
  15:Generated_Source\PSoC5/Coils_1.c **** *******************************************************************************/
  16:Generated_Source\PSoC5/Coils_1.c **** 
  17:Generated_Source\PSoC5/Coils_1.c **** #include "cytypes.h"
  18:Generated_Source\PSoC5/Coils_1.c **** #include "Coils_1.h"
  19:Generated_Source\PSoC5/Coils_1.c **** 
  20:Generated_Source\PSoC5/Coils_1.c **** /* APIs are not generated for P15[7:6] on PSoC 5 */
  21:Generated_Source\PSoC5/Coils_1.c **** #if !(CY_PSOC5A &&\
  22:Generated_Source\PSoC5/Coils_1.c **** 	 Coils_1__PORT == 15 && ((Coils_1__MASK & 0xC0) != 0))
  23:Generated_Source\PSoC5/Coils_1.c **** 
  24:Generated_Source\PSoC5/Coils_1.c **** 
  25:Generated_Source\PSoC5/Coils_1.c **** /*******************************************************************************
  26:Generated_Source\PSoC5/Coils_1.c **** * Function Name: Coils_1_Write
  27:Generated_Source\PSoC5/Coils_1.c **** ****************************************************************************//**
  28:Generated_Source\PSoC5/Coils_1.c **** *
  29:Generated_Source\PSoC5/Coils_1.c **** * \brief Writes the value to the physical port (data output register), masking
  30:Generated_Source\PSoC5/Coils_1.c **** *  and shifting the bits appropriately. 
  31:Generated_Source\PSoC5/Coils_1.c **** *
ARM GAS  C:\Users\BETTEF~1\AppData\Local\Temp\cc9D5276.s 			page 2


  32:Generated_Source\PSoC5/Coils_1.c **** * The data output register controls the signal applied to the physical pin in 
  33:Generated_Source\PSoC5/Coils_1.c **** * conjunction with the drive mode parameter. This function avoids changing 
  34:Generated_Source\PSoC5/Coils_1.c **** * other bits in the port by using the appropriate method (read-modify-write or
  35:Generated_Source\PSoC5/Coils_1.c **** * bit banding).
  36:Generated_Source\PSoC5/Coils_1.c **** *
  37:Generated_Source\PSoC5/Coils_1.c **** * <b>Note</b> This function should not be used on a hardware digital output pin 
  38:Generated_Source\PSoC5/Coils_1.c **** * as it is driven by the hardware signal attached to it.
  39:Generated_Source\PSoC5/Coils_1.c **** *
  40:Generated_Source\PSoC5/Coils_1.c **** * \param value
  41:Generated_Source\PSoC5/Coils_1.c **** *  Value to write to the component instance.
  42:Generated_Source\PSoC5/Coils_1.c **** *
  43:Generated_Source\PSoC5/Coils_1.c **** * \return 
  44:Generated_Source\PSoC5/Coils_1.c **** *  None 
  45:Generated_Source\PSoC5/Coils_1.c **** *
  46:Generated_Source\PSoC5/Coils_1.c **** * \sideeffect
  47:Generated_Source\PSoC5/Coils_1.c **** *  If you use read-modify-write operations that are not atomic; the Interrupt 
  48:Generated_Source\PSoC5/Coils_1.c **** *  Service Routines (ISR) can cause corruption of this function. An ISR that 
  49:Generated_Source\PSoC5/Coils_1.c **** *  interrupts this function and performs writes to the Pins component data 
  50:Generated_Source\PSoC5/Coils_1.c **** *  register can cause corrupted port data. To avoid this issue, you should 
  51:Generated_Source\PSoC5/Coils_1.c **** *  either use the Per-Pin APIs (primary method) or disable interrupts around 
  52:Generated_Source\PSoC5/Coils_1.c **** *  this function.
  53:Generated_Source\PSoC5/Coils_1.c **** *
  54:Generated_Source\PSoC5/Coils_1.c **** * \funcusage
  55:Generated_Source\PSoC5/Coils_1.c **** *  \snippet Coils_1_SUT.c usage_Coils_1_Write
  56:Generated_Source\PSoC5/Coils_1.c **** *******************************************************************************/
  57:Generated_Source\PSoC5/Coils_1.c **** void Coils_1_Write(uint8 value)
  58:Generated_Source\PSoC5/Coils_1.c **** {
  27              		.loc 1 58 0
  28              		.cfi_startproc
  29              		@ args = 0, pretend = 0, frame = 0
  30              		@ frame_needed = 0, uses_anonymous_args = 0
  31              		@ link register save eliminated.
  32              	.LVL0:
  59:Generated_Source\PSoC5/Coils_1.c ****     uint8 staticBits = (Coils_1_DR & (uint8)(~Coils_1_MASK));
  33              		.loc 1 59 0
  34 0000 014B     		ldr	r3, .L2
  35 0002 1A78     		ldrb	r2, [r3]	@ zero_extendqisi2
  36              	.LVL1:
  60:Generated_Source\PSoC5/Coils_1.c ****     Coils_1_DR = staticBits | ((uint8)(value << Coils_1_SHIFT) & Coils_1_MASK);
  37              		.loc 1 60 0
  38 0004 1870     		strb	r0, [r3]
  39 0006 7047     		bx	lr
  40              	.L3:
  41              		.align	2
  42              	.L2:
  43 0008 20510040 		.word	1073762592
  44              		.cfi_endproc
  45              	.LFE0:
  46              		.size	Coils_1_Write, .-Coils_1_Write
  47              		.section	.text.Coils_1_SetDriveMode,"ax",%progbits
  48              		.align	2
  49              		.global	Coils_1_SetDriveMode
  50              		.thumb
  51              		.thumb_func
  52              		.type	Coils_1_SetDriveMode, %function
  53              	Coils_1_SetDriveMode:
  54              	.LFB1:
ARM GAS  C:\Users\BETTEF~1\AppData\Local\Temp\cc9D5276.s 			page 3


  61:Generated_Source\PSoC5/Coils_1.c **** }
  62:Generated_Source\PSoC5/Coils_1.c **** 
  63:Generated_Source\PSoC5/Coils_1.c **** 
  64:Generated_Source\PSoC5/Coils_1.c **** /*******************************************************************************
  65:Generated_Source\PSoC5/Coils_1.c **** * Function Name: Coils_1_SetDriveMode
  66:Generated_Source\PSoC5/Coils_1.c **** ****************************************************************************//**
  67:Generated_Source\PSoC5/Coils_1.c **** *
  68:Generated_Source\PSoC5/Coils_1.c **** * \brief Sets the drive mode for each of the Pins component's pins.
  69:Generated_Source\PSoC5/Coils_1.c **** * 
  70:Generated_Source\PSoC5/Coils_1.c **** * <b>Note</b> This affects all pins in the Pins component instance. Use the
  71:Generated_Source\PSoC5/Coils_1.c **** * Per-Pin APIs if you wish to control individual pin's drive modes.
  72:Generated_Source\PSoC5/Coils_1.c **** *
  73:Generated_Source\PSoC5/Coils_1.c **** * \param mode
  74:Generated_Source\PSoC5/Coils_1.c **** *  Mode for the selected signals. Valid options are documented in 
  75:Generated_Source\PSoC5/Coils_1.c **** *  \ref driveMode.
  76:Generated_Source\PSoC5/Coils_1.c **** *
  77:Generated_Source\PSoC5/Coils_1.c **** * \return
  78:Generated_Source\PSoC5/Coils_1.c **** *  None
  79:Generated_Source\PSoC5/Coils_1.c **** *
  80:Generated_Source\PSoC5/Coils_1.c **** * \sideeffect
  81:Generated_Source\PSoC5/Coils_1.c **** *  If you use read-modify-write operations that are not atomic, the ISR can
  82:Generated_Source\PSoC5/Coils_1.c **** *  cause corruption of this function. An ISR that interrupts this function 
  83:Generated_Source\PSoC5/Coils_1.c **** *  and performs writes to the Pins component Drive Mode registers can cause 
  84:Generated_Source\PSoC5/Coils_1.c **** *  corrupted port data. To avoid this issue, you should either use the Per-Pin
  85:Generated_Source\PSoC5/Coils_1.c **** *  APIs (primary method) or disable interrupts around this function.
  86:Generated_Source\PSoC5/Coils_1.c **** *
  87:Generated_Source\PSoC5/Coils_1.c **** * \funcusage
  88:Generated_Source\PSoC5/Coils_1.c **** *  \snippet Coils_1_SUT.c usage_Coils_1_SetDriveMode
  89:Generated_Source\PSoC5/Coils_1.c **** *******************************************************************************/
  90:Generated_Source\PSoC5/Coils_1.c **** void Coils_1_SetDriveMode(uint8 mode)
  91:Generated_Source\PSoC5/Coils_1.c **** {
  55              		.loc 1 91 0
  56              		.cfi_startproc
  57              		@ args = 0, pretend = 0, frame = 0
  58              		@ frame_needed = 0, uses_anonymous_args = 0
  59              		@ link register save eliminated.
  60              	.LVL2:
  92:Generated_Source\PSoC5/Coils_1.c **** 	CyPins_SetPinDriveMode(Coils_1_0, mode);
  61              		.loc 1 92 0
  62 0000 194A     		ldr	r2, .L5
  63 0002 1378     		ldrb	r3, [r2]	@ zero_extendqisi2
  64 0004 00F00E00 		and	r0, r0, #14
  65              	.LVL3:
  66 0008 03F0F103 		and	r3, r3, #241
  67 000c 0343     		orrs	r3, r3, r0
  68 000e 1370     		strb	r3, [r2]
  93:Generated_Source\PSoC5/Coils_1.c **** 	CyPins_SetPinDriveMode(Coils_1_1, mode);
  69              		.loc 1 93 0
  70 0010 0132     		adds	r2, r2, #1
  71 0012 1378     		ldrb	r3, [r2]	@ zero_extendqisi2
  72 0014 03F0F103 		and	r3, r3, #241
  73 0018 0343     		orrs	r3, r3, r0
  74 001a 1370     		strb	r3, [r2]
  94:Generated_Source\PSoC5/Coils_1.c **** 	CyPins_SetPinDriveMode(Coils_1_2, mode);
  75              		.loc 1 94 0
  76 001c 0132     		adds	r2, r2, #1
  77 001e 1378     		ldrb	r3, [r2]	@ zero_extendqisi2
ARM GAS  C:\Users\BETTEF~1\AppData\Local\Temp\cc9D5276.s 			page 4


  78 0020 03F0F103 		and	r3, r3, #241
  79 0024 0343     		orrs	r3, r3, r0
  80 0026 1370     		strb	r3, [r2]
  95:Generated_Source\PSoC5/Coils_1.c **** 	CyPins_SetPinDriveMode(Coils_1_3, mode);
  81              		.loc 1 95 0
  82 0028 0132     		adds	r2, r2, #1
  83 002a 1378     		ldrb	r3, [r2]	@ zero_extendqisi2
  84 002c 03F0F103 		and	r3, r3, #241
  85 0030 0343     		orrs	r3, r3, r0
  86 0032 1370     		strb	r3, [r2]
  96:Generated_Source\PSoC5/Coils_1.c **** 	CyPins_SetPinDriveMode(Coils_1_4, mode);
  87              		.loc 1 96 0
  88 0034 0132     		adds	r2, r2, #1
  89 0036 1378     		ldrb	r3, [r2]	@ zero_extendqisi2
  90 0038 03F0F103 		and	r3, r3, #241
  91 003c 0343     		orrs	r3, r3, r0
  92 003e 1370     		strb	r3, [r2]
  97:Generated_Source\PSoC5/Coils_1.c **** 	CyPins_SetPinDriveMode(Coils_1_5, mode);
  93              		.loc 1 97 0
  94 0040 0132     		adds	r2, r2, #1
  95 0042 1378     		ldrb	r3, [r2]	@ zero_extendqisi2
  96 0044 03F0F103 		and	r3, r3, #241
  97 0048 0343     		orrs	r3, r3, r0
  98 004a 1370     		strb	r3, [r2]
  98:Generated_Source\PSoC5/Coils_1.c **** 	CyPins_SetPinDriveMode(Coils_1_6, mode);
  99              		.loc 1 98 0
 100 004c 0132     		adds	r2, r2, #1
 101 004e 1378     		ldrb	r3, [r2]	@ zero_extendqisi2
 102 0050 03F0F103 		and	r3, r3, #241
 103 0054 0343     		orrs	r3, r3, r0
 104 0056 1370     		strb	r3, [r2]
  99:Generated_Source\PSoC5/Coils_1.c **** 	CyPins_SetPinDriveMode(Coils_1_7, mode);
 105              		.loc 1 99 0
 106 0058 0132     		adds	r2, r2, #1
 107 005a 1378     		ldrb	r3, [r2]	@ zero_extendqisi2
 108 005c 03F0F103 		and	r3, r3, #241
 109 0060 1843     		orrs	r0, r0, r3
 110 0062 1070     		strb	r0, [r2]
 111 0064 7047     		bx	lr
 112              	.L6:
 113 0066 00BF     		.align	2
 114              	.L5:
 115 0068 10500040 		.word	1073762320
 116              		.cfi_endproc
 117              	.LFE1:
 118              		.size	Coils_1_SetDriveMode, .-Coils_1_SetDriveMode
 119              		.section	.text.Coils_1_Read,"ax",%progbits
 120              		.align	2
 121              		.global	Coils_1_Read
 122              		.thumb
 123              		.thumb_func
 124              		.type	Coils_1_Read, %function
 125              	Coils_1_Read:
 126              	.LFB2:
 100:Generated_Source\PSoC5/Coils_1.c **** }
 101:Generated_Source\PSoC5/Coils_1.c **** 
 102:Generated_Source\PSoC5/Coils_1.c **** 
ARM GAS  C:\Users\BETTEF~1\AppData\Local\Temp\cc9D5276.s 			page 5


 103:Generated_Source\PSoC5/Coils_1.c **** /*******************************************************************************
 104:Generated_Source\PSoC5/Coils_1.c **** * Function Name: Coils_1_Read
 105:Generated_Source\PSoC5/Coils_1.c **** ****************************************************************************//**
 106:Generated_Source\PSoC5/Coils_1.c **** *
 107:Generated_Source\PSoC5/Coils_1.c **** * \brief Reads the associated physical port (pin status register) and masks 
 108:Generated_Source\PSoC5/Coils_1.c **** *  the required bits according to the width and bit position of the component
 109:Generated_Source\PSoC5/Coils_1.c **** *  instance. 
 110:Generated_Source\PSoC5/Coils_1.c **** *
 111:Generated_Source\PSoC5/Coils_1.c **** * The pin's status register returns the current logic level present on the 
 112:Generated_Source\PSoC5/Coils_1.c **** * physical pin.
 113:Generated_Source\PSoC5/Coils_1.c **** *
 114:Generated_Source\PSoC5/Coils_1.c **** * \return 
 115:Generated_Source\PSoC5/Coils_1.c **** *  The current value for the pins in the component as a right justified number.
 116:Generated_Source\PSoC5/Coils_1.c **** *
 117:Generated_Source\PSoC5/Coils_1.c **** * \funcusage
 118:Generated_Source\PSoC5/Coils_1.c **** *  \snippet Coils_1_SUT.c usage_Coils_1_Read  
 119:Generated_Source\PSoC5/Coils_1.c **** *******************************************************************************/
 120:Generated_Source\PSoC5/Coils_1.c **** uint8 Coils_1_Read(void)
 121:Generated_Source\PSoC5/Coils_1.c **** {
 127              		.loc 1 121 0
 128              		.cfi_startproc
 129              		@ args = 0, pretend = 0, frame = 0
 130              		@ frame_needed = 0, uses_anonymous_args = 0
 131              		@ link register save eliminated.
 122:Generated_Source\PSoC5/Coils_1.c ****     return (Coils_1_PS & Coils_1_MASK) >> Coils_1_SHIFT;
 132              		.loc 1 122 0
 133 0000 014B     		ldr	r3, .L8
 134 0002 1878     		ldrb	r0, [r3]	@ zero_extendqisi2
 123:Generated_Source\PSoC5/Coils_1.c **** }
 135              		.loc 1 123 0
 136 0004 7047     		bx	lr
 137              	.L9:
 138 0006 00BF     		.align	2
 139              	.L8:
 140 0008 21510040 		.word	1073762593
 141              		.cfi_endproc
 142              	.LFE2:
 143              		.size	Coils_1_Read, .-Coils_1_Read
 144              		.section	.text.Coils_1_ReadDataReg,"ax",%progbits
 145              		.align	2
 146              		.global	Coils_1_ReadDataReg
 147              		.thumb
 148              		.thumb_func
 149              		.type	Coils_1_ReadDataReg, %function
 150              	Coils_1_ReadDataReg:
 151              	.LFB3:
 124:Generated_Source\PSoC5/Coils_1.c **** 
 125:Generated_Source\PSoC5/Coils_1.c **** 
 126:Generated_Source\PSoC5/Coils_1.c **** /*******************************************************************************
 127:Generated_Source\PSoC5/Coils_1.c **** * Function Name: Coils_1_ReadDataReg
 128:Generated_Source\PSoC5/Coils_1.c **** ****************************************************************************//**
 129:Generated_Source\PSoC5/Coils_1.c **** *
 130:Generated_Source\PSoC5/Coils_1.c **** * \brief Reads the associated physical port's data output register and masks 
 131:Generated_Source\PSoC5/Coils_1.c **** *  the correct bits according to the width and bit position of the component 
 132:Generated_Source\PSoC5/Coils_1.c **** *  instance. 
 133:Generated_Source\PSoC5/Coils_1.c **** *
 134:Generated_Source\PSoC5/Coils_1.c **** * The data output register controls the signal applied to the physical pin in 
ARM GAS  C:\Users\BETTEF~1\AppData\Local\Temp\cc9D5276.s 			page 6


 135:Generated_Source\PSoC5/Coils_1.c **** * conjunction with the drive mode parameter. This is not the same as the 
 136:Generated_Source\PSoC5/Coils_1.c **** * preferred Coils_1_Read() API because the 
 137:Generated_Source\PSoC5/Coils_1.c **** * Coils_1_ReadDataReg() reads the data register instead of the status 
 138:Generated_Source\PSoC5/Coils_1.c **** * register. For output pins this is a useful function to determine the value 
 139:Generated_Source\PSoC5/Coils_1.c **** * just written to the pin.
 140:Generated_Source\PSoC5/Coils_1.c **** *
 141:Generated_Source\PSoC5/Coils_1.c **** * \return 
 142:Generated_Source\PSoC5/Coils_1.c **** *  The current value of the data register masked and shifted into a right 
 143:Generated_Source\PSoC5/Coils_1.c **** *  justified number for the component instance.
 144:Generated_Source\PSoC5/Coils_1.c **** *
 145:Generated_Source\PSoC5/Coils_1.c **** * \funcusage
 146:Generated_Source\PSoC5/Coils_1.c **** *  \snippet Coils_1_SUT.c usage_Coils_1_ReadDataReg 
 147:Generated_Source\PSoC5/Coils_1.c **** *******************************************************************************/
 148:Generated_Source\PSoC5/Coils_1.c **** uint8 Coils_1_ReadDataReg(void)
 149:Generated_Source\PSoC5/Coils_1.c **** {
 152              		.loc 1 149 0
 153              		.cfi_startproc
 154              		@ args = 0, pretend = 0, frame = 0
 155              		@ frame_needed = 0, uses_anonymous_args = 0
 156              		@ link register save eliminated.
 150:Generated_Source\PSoC5/Coils_1.c ****     return (Coils_1_DR & Coils_1_MASK) >> Coils_1_SHIFT;
 157              		.loc 1 150 0
 158 0000 014B     		ldr	r3, .L11
 159 0002 1878     		ldrb	r0, [r3]	@ zero_extendqisi2
 151:Generated_Source\PSoC5/Coils_1.c **** }
 160              		.loc 1 151 0
 161 0004 7047     		bx	lr
 162              	.L12:
 163 0006 00BF     		.align	2
 164              	.L11:
 165 0008 20510040 		.word	1073762592
 166              		.cfi_endproc
 167              	.LFE3:
 168              		.size	Coils_1_ReadDataReg, .-Coils_1_ReadDataReg
 169              		.text
 170              	.Letext0:
 171              		.file 2 "Generated_Source\\PSoC5\\cytypes.h"