ARM GAS  C:\Users\BETTEF~1\AppData\Local\Temp\cc2yuJuN.s 			page 1


   1              		.syntax unified
   2              		.cpu cortex-m3
   3              		.fpu softvfp
   4              		.eabi_attribute 20, 1
   5              		.eabi_attribute 21, 1
   6              		.eabi_attribute 23, 3
   7              		.eabi_attribute 24, 1
   8              		.eabi_attribute 25, 1
   9              		.eabi_attribute 26, 1
  10              		.eabi_attribute 30, 1
  11              		.eabi_attribute 34, 1
  12              		.eabi_attribute 18, 4
  13              		.thumb
  14              		.file	"main.c"
  15              		.text
  16              	.Ltext0:
  17              		.cfi_sections	.debug_frame
  18              		.section	.text.isr_RxD,"ax",%progbits
  19              		.align	2
  20              		.global	isr_RxD
  21              		.thumb
  22              		.thumb_func
  23              		.type	isr_RxD, %function
  24              	isr_RxD:
  25              	.LFB63:
  26              		.file 1 "main.c"
   1:main.c        **** #include "project.h"
   2:main.c        **** 
   3:main.c        **** uint16 zStepCount = 0;
   4:main.c        **** uint8 step = 0b1100; // Start position for motor - global variabel
   5:main.c        **** uint8 enabled = 0;
   6:main.c        **** uint8 zDirection;
   7:main.c        **** 
   8:main.c        **** void moveC();
   9:main.c        **** void moveCC();
  10:main.c        **** 
  11:main.c        **** enum SPI_protocol {
  12:main.c        ****     
  13:main.c        ****     // Command from PSoC-master to -slave
  14:main.c        ****     MOVE_CLOCKWISE = 0x01,
  15:main.c        ****     MOVE_COUNTERCLOCKWISE = 0x02,
  16:main.c        ****     STOP_MOVING = 0x03,
  17:main.c        **** };
  18:main.c        **** 
  19:main.c        **** enum bottleInfo {
  20:main.c        ****     BELOW_TOP = 10,             // Random value
  21:main.c        ****     ABOVE_TOP = 11,             // Random value
  22:main.c        **** };
  23:main.c        **** 
  24:main.c        **** enum operation {
  25:main.c        ****     CLOCK = 1,
  26:main.c        ****     COUNTERCLOCK = 2,
  27:main.c        ****     STOP = 3,
  28:main.c        **** };
  29:main.c        **** 
  30:main.c        **** enum dir
  31:main.c        **** {
ARM GAS  C:\Users\BETTEF~1\AppData\Local\Temp\cc2yuJuN.s 			page 2


  32:main.c        ****     NO = 0,
  33:main.c        ****     FW = 1,
  34:main.c        ****     BW = 2,
  35:main.c        **** };
  36:main.c        **** 
  37:main.c        **** CY_ISR(isr_RxD)
  38:main.c        **** {
  27              		.loc 1 38 0
  28              		.cfi_startproc
  29              		@ args = 0, pretend = 0, frame = 0
  30              		@ frame_needed = 0, uses_anonymous_args = 0
  31 0000 10B5     		push	{r4, lr}
  32              		.cfi_def_cfa_offset 8
  33              		.cfi_offset 4, -8
  34              		.cfi_offset 14, -4
  39:main.c        ****     uint8 rxCmd;
  40:main.c        ****     UART_1_ClearTxBuffer();
  35              		.loc 1 40 0
  36 0002 FFF7FEFF 		bl	UART_1_ClearTxBuffer
  37              	.LVL0:
  41:main.c        ****     
  42:main.c        ****     rxCmd = UART_1_ReadRxData();
  38              		.loc 1 42 0
  39 0006 FFF7FEFF 		bl	UART_1_ReadRxData
  40              	.LVL1:
  41 000a 0446     		mov	r4, r0
  42              	.LVL2:
  43:main.c        ****     UART_1_ClearRxBuffer();
  43              		.loc 1 43 0
  44 000c FFF7FEFF 		bl	UART_1_ClearRxBuffer
  45              	.LVL3:
  44:main.c        ****     
  45:main.c        ****     rxCmd -= 0x30;
  46              		.loc 1 45 0
  47 0010 A4F13000 		sub	r0, r4, #48
  48 0014 C0B2     		uxtb	r0, r0
  49              	.LVL4:
  46:main.c        ****     
  47:main.c        ****     switch(rxCmd) {
  50              		.loc 1 47 0
  51 0016 0228     		cmp	r0, #2
  52 0018 0AD0     		beq	.L3
  53 001a 0328     		cmp	r0, #3
  54 001c 0FD0     		beq	.L4
  55 001e 0128     		cmp	r0, #1
  56 0020 13D1     		bne	.L1
  48:main.c        ****         
  49:main.c        ****         // Position x-sensor to just under top of bottle
  50:main.c        ****         case MOVE_CLOCKWISE:
  51:main.c        ****             zDirection = BW;
  57              		.loc 1 51 0
  58 0022 0222     		movs	r2, #2
  59 0024 094B     		ldr	r3, .L7
  60 0026 1A70     		strb	r2, [r3]
  52:main.c        ****             enabled = CLOCK;
  61              		.loc 1 52 0
  62 0028 0122     		movs	r2, #1
ARM GAS  C:\Users\BETTEF~1\AppData\Local\Temp\cc2yuJuN.s 			page 3


  63 002a 094B     		ldr	r3, .L7+4
  64 002c 1A70     		strb	r2, [r3]
  53:main.c        ****             break;
  65              		.loc 1 53 0
  66 002e 10BD     		pop	{r4, pc}
  67              	.L3:
  54:main.c        ****         
  55:main.c        ****         // Position x-sensor to just over top of bottle
  56:main.c        ****         case MOVE_COUNTERCLOCKWISE:
  57:main.c        ****             zDirection = FW;
  68              		.loc 1 57 0
  69 0030 0122     		movs	r2, #1
  70 0032 064B     		ldr	r3, .L7
  71 0034 1A70     		strb	r2, [r3]
  58:main.c        ****             enabled = COUNTERCLOCK;
  72              		.loc 1 58 0
  73 0036 0222     		movs	r2, #2
  74 0038 054B     		ldr	r3, .L7+4
  75 003a 1A70     		strb	r2, [r3]
  59:main.c        ****             break;
  76              		.loc 1 59 0
  77 003c 10BD     		pop	{r4, pc}
  78              	.L4:
  60:main.c        ****         
  61:main.c        ****         // Position x- and y-sensor to start-positions on respectively x- and y-axes
  62:main.c        ****         case STOP_MOVING:
  63:main.c        ****             zDirection = NO;
  79              		.loc 1 63 0
  80 003e 0022     		movs	r2, #0
  81 0040 024B     		ldr	r3, .L7
  82 0042 1A70     		strb	r2, [r3]
  64:main.c        ****             enabled = STOP;
  83              		.loc 1 64 0
  84 0044 0322     		movs	r2, #3
  85 0046 024B     		ldr	r3, .L7+4
  86 0048 1A70     		strb	r2, [r3]
  87              	.L1:
  88 004a 10BD     		pop	{r4, pc}
  89              	.L8:
  90              		.align	2
  91              	.L7:
  92 004c 00000000 		.word	zDirection
  93 0050 00000000 		.word	.LANCHOR0
  94              		.cfi_endproc
  95              	.LFE63:
  96              		.size	isr_RxD, .-isr_RxD
  97              		.section	.text.rotateRight,"ax",%progbits
  98              		.align	2
  99              		.global	rotateRight
 100              		.thumb
 101              		.thumb_func
 102              		.type	rotateRight, %function
 103              	rotateRight:
 104              	.LFB64:
  65:main.c        ****             break;
  66:main.c        ****             
  67:main.c        ****         default:
ARM GAS  C:\Users\BETTEF~1\AppData\Local\Temp\cc2yuJuN.s 			page 4


  68:main.c        ****             break;
  69:main.c        ****     }
  70:main.c        **** }
  71:main.c        **** 
  72:main.c        **** uint8 rotateRight(uint8 value)      // Shifter bit en til højre
  73:main.c        **** {
 105              		.loc 1 73 0
 106              		.cfi_startproc
 107              		@ args = 0, pretend = 0, frame = 0
 108              		@ frame_needed = 0, uses_anonymous_args = 0
 109              		@ link register save eliminated.
 110              	.LVL5:
  74:main.c        ****     return  (value >> 1) | ( (value << 3) & 15);
 111              		.loc 1 74 0
 112 0000 C300     		lsls	r3, r0, #3
 113 0002 03F00F03 		and	r3, r3, #15
  75:main.c        **** }
 114              		.loc 1 75 0
 115 0006 43EA5000 		orr	r0, r3, r0, lsr #1
 116              	.LVL6:
 117 000a 7047     		bx	lr
 118              		.cfi_endproc
 119              	.LFE64:
 120              		.size	rotateRight, .-rotateRight
 121              		.section	.text.rotateLeft,"ax",%progbits
 122              		.align	2
 123              		.global	rotateLeft
 124              		.thumb
 125              		.thumb_func
 126              		.type	rotateLeft, %function
 127              	rotateLeft:
 128              	.LFB65:
  76:main.c        **** 
  77:main.c        **** uint8 rotateLeft(uint8 value)      // Shifter bit en til venstre
  78:main.c        **** {
 129              		.loc 1 78 0
 130              		.cfi_startproc
 131              		@ args = 0, pretend = 0, frame = 0
 132              		@ frame_needed = 0, uses_anonymous_args = 0
 133              		@ link register save eliminated.
 134              	.LVL7:
  79:main.c        ****     return  (value >> 3) | ( (value << 1) & 15);
 135              		.loc 1 79 0
 136 0000 4300     		lsls	r3, r0, #1
 137 0002 03F00F03 		and	r3, r3, #15
  80:main.c        **** }
 138              		.loc 1 80 0
 139 0006 43EAD000 		orr	r0, r3, r0, lsr #3
 140              	.LVL8:
 141 000a 7047     		bx	lr
 142              		.cfi_endproc
 143              	.LFE65:
 144              		.size	rotateLeft, .-rotateLeft
 145              		.section	.text.moveC,"ax",%progbits
 146              		.align	2
 147              		.global	moveC
 148              		.thumb
ARM GAS  C:\Users\BETTEF~1\AppData\Local\Temp\cc2yuJuN.s 			page 5


 149              		.thumb_func
 150              		.type	moveC, %function
 151              	moveC:
 152              	.LFB67:
  81:main.c        **** 
  82:main.c        **** int main(void)
  83:main.c        **** {
  84:main.c        ****     CyGlobalIntEnable;
  85:main.c        **** 
  86:main.c        ****     UART_1_Start();
  87:main.c        ****     isr_RxD_StartEx(isr_RxD);
  88:main.c        **** 
  89:main.c        ****     for(;;)
  90:main.c        ****     {
  91:main.c        ****         switch(enabled) {
  92:main.c        ****             
  93:main.c        ****             // Position x-sensor to just under top of bottle
  94:main.c        ****             case CLOCK:
  95:main.c        ****                 moveC();
  96:main.c        ****                 break;
  97:main.c        ****             
  98:main.c        ****             // Position x-sensor to just over top of bottle
  99:main.c        ****             case COUNTERCLOCK:
 100:main.c        ****                 moveCC();
 101:main.c        ****                 break;
 102:main.c        ****             
 103:main.c        ****             default:
 104:main.c        ****                 break;
 105:main.c        ****         }
 106:main.c        ****     }
 107:main.c        ****     
 108:main.c        ****     return 0;
 109:main.c        **** }
 110:main.c        **** 
 111:main.c        **** void moveC()
 112:main.c        **** {
 153              		.loc 1 112 0
 154              		.cfi_startproc
 155              		@ args = 0, pretend = 0, frame = 0
 156              		@ frame_needed = 0, uses_anonymous_args = 0
 157 0000 10B5     		push	{r4, lr}
 158              		.cfi_def_cfa_offset 8
 159              		.cfi_offset 4, -8
 160              		.cfi_offset 14, -4
 113:main.c        ****     while(zDirection == BW) {
 161              		.loc 1 113 0
 162 0002 0CE0     		b	.L12
 163              	.L13:
 114:main.c        ****         step = rotateRight(step);
 164              		.loc 1 114 0
 165 0004 084C     		ldr	r4, .L15
 166 0006 2078     		ldrb	r0, [r4]	@ zero_extendqisi2
 167 0008 FFF7FEFF 		bl	rotateRight
 168              	.LVL9:
 169 000c 2070     		strb	r0, [r4]
 115:main.c        ****         Coils_1_Write((step << 4) | step);              // Skriver til pins fra TopDesign (Coils)
 170              		.loc 1 115 0
ARM GAS  C:\Users\BETTEF~1\AppData\Local\Temp\cc2yuJuN.s 			page 6


 171 000e 40EA0010 		orr	r0, r0, r0, lsl #4
 172 0012 C0B2     		uxtb	r0, r0
 173 0014 FFF7FEFF 		bl	Coils_1_Write
 174              	.LVL10:
 116:main.c        ****         CyDelay(2);
 175              		.loc 1 116 0
 176 0018 0220     		movs	r0, #2
 177 001a FFF7FEFF 		bl	CyDelay
 178              	.LVL11:
 179              	.L12:
 113:main.c        ****         step = rotateRight(step);
 180              		.loc 1 113 0
 181 001e 034B     		ldr	r3, .L15+4
 182 0020 1B78     		ldrb	r3, [r3]	@ zero_extendqisi2
 183 0022 022B     		cmp	r3, #2
 184 0024 EED0     		beq	.L13
 117:main.c        ****     }
 118:main.c        **** }
 185              		.loc 1 118 0
 186 0026 10BD     		pop	{r4, pc}
 187              	.L16:
 188              		.align	2
 189              	.L15:
 190 0028 00000000 		.word	.LANCHOR1
 191 002c 00000000 		.word	zDirection
 192              		.cfi_endproc
 193              	.LFE67:
 194              		.size	moveC, .-moveC
 195              		.section	.text.moveCC,"ax",%progbits
 196              		.align	2
 197              		.global	moveCC
 198              		.thumb
 199              		.thumb_func
 200              		.type	moveCC, %function
 201              	moveCC:
 202              	.LFB68:
 119:main.c        **** 
 120:main.c        **** void moveCC()
 121:main.c        **** {
 203              		.loc 1 121 0
 204              		.cfi_startproc
 205              		@ args = 0, pretend = 0, frame = 0
 206              		@ frame_needed = 0, uses_anonymous_args = 0
 207 0000 10B5     		push	{r4, lr}
 208              		.cfi_def_cfa_offset 8
 209              		.cfi_offset 4, -8
 210              		.cfi_offset 14, -4
 122:main.c        ****     while(zDirection == FW) {
 211              		.loc 1 122 0
 212 0002 0CE0     		b	.L18
 213              	.L19:
 123:main.c        ****         step = rotateLeft(step);
 214              		.loc 1 123 0
 215 0004 084C     		ldr	r4, .L21
 216 0006 2078     		ldrb	r0, [r4]	@ zero_extendqisi2
 217 0008 FFF7FEFF 		bl	rotateLeft
 218              	.LVL12:
ARM GAS  C:\Users\BETTEF~1\AppData\Local\Temp\cc2yuJuN.s 			page 7


 219 000c 2070     		strb	r0, [r4]
 124:main.c        ****         Coils_1_Write((step << 4) | step);              // Skriver til pins fra TopDesign (Coils)
 220              		.loc 1 124 0
 221 000e 40EA0010 		orr	r0, r0, r0, lsl #4
 222 0012 C0B2     		uxtb	r0, r0
 223 0014 FFF7FEFF 		bl	Coils_1_Write
 224              	.LVL13:
 125:main.c        ****         CyDelay(2);
 225              		.loc 1 125 0
 226 0018 0220     		movs	r0, #2
 227 001a FFF7FEFF 		bl	CyDelay
 228              	.LVL14:
 229              	.L18:
 122:main.c        ****         step = rotateLeft(step);
 230              		.loc 1 122 0
 231 001e 034B     		ldr	r3, .L21+4
 232 0020 1B78     		ldrb	r3, [r3]	@ zero_extendqisi2
 233 0022 012B     		cmp	r3, #1
 234 0024 EED0     		beq	.L19
 126:main.c        ****     }
 127:main.c        **** }
 235              		.loc 1 127 0
 236 0026 10BD     		pop	{r4, pc}
 237              	.L22:
 238              		.align	2
 239              	.L21:
 240 0028 00000000 		.word	.LANCHOR1
 241 002c 00000000 		.word	zDirection
 242              		.cfi_endproc
 243              	.LFE68:
 244              		.size	moveCC, .-moveCC
 245              		.section	.text.main,"ax",%progbits
 246              		.align	2
 247              		.global	main
 248              		.thumb
 249              		.thumb_func
 250              		.type	main, %function
 251              	main:
 252              	.LFB66:
  83:main.c        ****     CyGlobalIntEnable;
 253              		.loc 1 83 0
 254              		.cfi_startproc
 255              		@ Volatile: function does not return.
 256              		@ args = 0, pretend = 0, frame = 0
 257              		@ frame_needed = 0, uses_anonymous_args = 0
 258 0000 08B5     		push	{r3, lr}
 259              		.cfi_def_cfa_offset 8
 260              		.cfi_offset 3, -8
 261              		.cfi_offset 14, -4
  84:main.c        **** 
 262              		.loc 1 84 0
 263              	@ 84 "main.c" 1
 264 0002 62B6     		CPSIE   i
 265              	@ 0 "" 2
  86:main.c        ****     isr_RxD_StartEx(isr_RxD);
 266              		.loc 1 86 0
 267              		.thumb
ARM GAS  C:\Users\BETTEF~1\AppData\Local\Temp\cc2yuJuN.s 			page 8


 268 0004 FFF7FEFF 		bl	UART_1_Start
 269              	.LVL15:
  87:main.c        **** 
 270              		.loc 1 87 0
 271 0008 0748     		ldr	r0, .L30
 272 000a FFF7FEFF 		bl	isr_RxD_StartEx
 273              	.LVL16:
 274              	.L25:
  91:main.c        ****             
 275              		.loc 1 91 0
 276 000e 074B     		ldr	r3, .L30+4
 277 0010 1B78     		ldrb	r3, [r3]	@ zero_extendqisi2
 278 0012 012B     		cmp	r3, #1
 279 0014 02D0     		beq	.L26
 280 0016 022B     		cmp	r3, #2
 281 0018 03D0     		beq	.L27
 282 001a F8E7     		b	.L25
 283              	.L26:
  95:main.c        ****                 break;
 284              		.loc 1 95 0
 285 001c FFF7FEFF 		bl	moveC
 286              	.LVL17:
  96:main.c        ****             
 287              		.loc 1 96 0
 288 0020 F5E7     		b	.L25
 289              	.L27:
 100:main.c        ****                 break;
 290              		.loc 1 100 0
 291 0022 FFF7FEFF 		bl	moveCC
 292              	.LVL18:
 101:main.c        ****             
 293              		.loc 1 101 0
 294 0026 F2E7     		b	.L25
 295              	.L31:
 296              		.align	2
 297              	.L30:
 298 0028 00000000 		.word	isr_RxD
 299 002c 00000000 		.word	.LANCHOR0
 300              		.cfi_endproc
 301              	.LFE66:
 302              		.size	main, .-main
 303              		.comm	zDirection,1,1
 304              		.global	enabled
 305              		.global	step
 306              		.global	zStepCount
 307              		.data
 308              		.set	.LANCHOR1,. + 0
 309              		.type	step, %object
 310              		.size	step, 1
 311              	step:
 312 0000 0C       		.byte	12
 313              		.bss
 314              		.align	1
 315              		.set	.LANCHOR0,. + 0
 316              		.type	enabled, %object
 317              		.size	enabled, 1
 318              	enabled:
ARM GAS  C:\Users\BETTEF~1\AppData\Local\Temp\cc2yuJuN.s 			page 9


 319 0000 00       		.space	1
 320 0001 00       		.space	1
 321              		.type	zStepCount, %object
 322              		.size	zStepCount, 2
 323              	zStepCount:
 324 0002 0000     		.space	2
 325              		.text
 326              	.Letext0:
 327              		.file 2 "c:\\program files (x86)\\cypress\\psoc creator\\4.0\\psoc creator\\import\\gnu\\arm\\4.9.
 328              		.file 3 "c:\\program files (x86)\\cypress\\psoc creator\\4.0\\psoc creator\\import\\gnu\\arm\\4.9.
 329              		.file 4 "Generated_Source\\PSoC5/cytypes.h"
 330              		.file 5 "Generated_Source\\PSoC5/core_cm3.h"
 331              		.file 6 "Generated_Source\\PSoC5/UART_1.h"
 332              		.file 7 "Generated_Source\\PSoC5/Coils_1.h"
 333              		.file 8 "Generated_Source\\PSoC5/CyLib.h"
 334              		.file 9 "Generated_Source\\PSoC5/isr_RxD.h"